ccopy_reg
_reconstructor
p1
(cicarus.results.readwrite
ResultSet
p2
c__builtin__
object
p3
NtRp4
(dp5
S'attr'
p6
(dp7
sS'_results'
p8
ccollections
deque
p9
((lp10
(cicarus.util
Tree
p11
(tRp12
S'computation_placement'
p13
g11
(tRp14
S'service_budget'
p15
I1
sS'name'
p16
S'EDGE'
p17
sS'computation_budget'
p18
I1
ssS'workload'
p19
g11
(tRp20
S'n_contents'
p21
I100
sS'playback_rate'
p22
I10
sS'n_chunks'
p23
I200
sS'n_warmup'
p24
I0
sS'rate'
p25
F50
sS'n_measured'
p26
F15000
sS'alpha'
p27
F0.10000000000000001
sS'n_services'
p28
I1
sS'seed'
p29
I0
sS'wndw_size'
p30
I10
sg16
S'STATIONARY'
p31
ssS'sched_policy'
p32
g11
(tRp33
g16
S'EDF'
p34
ssS'cache_policy'
p35
g11
(tRp36
g16
S'LRU'
p37
ssS'strategy'
p38
g11
(tRp39
g22
I10
sg30
I10
sg16
S'OPTIMAL'
p40
sg23
I200
ssS'content_placement'
p41
g11
(tRp42
g16
S'UNIFORM'
p43
sg23
I200
ssS'cache_placement'
p44
g11
(tRp45
S'network_cache'
p46
F1
sS'cache_budget'
p47
I400
sg16
g17
ssS'desc'
p48
S'strategy: OPTIMAL alpha 0.1'
p49
sS'warmup_strategy'
p50
g11
(tRp51
g23
I200
sg22
I10
sg16
g40
sg30
I10
ssS'topology'
p52
g11
(tRp53
S'nrecv_per_edge'
p54
I10
sg16
S'TISCALI'
p55
ssg11
(tRp56
S'VIDEO_PLAYBACK'
p57
g11
(tRp58
S'ROUTER_HIT_RATIO'
p59
F0
sS'BUFFER_RATIO'
p60
F0.00053333333333333336
sS'CACHE_HIT_RATIO'
p61
F0.98872766666666667
sS'OVERHEAD'
p62
F3.4171680000000002
sS'BUFFERING_PER_CONTENT'
p63
g11
(tRp64
I97
I1
sI7
I2
sI15
I1
sI81
I1
sI19
I1
sI57
I1
sI47
I1
ssstp65
a(g11
(tRp66
S'computation_placement'
p67
g11
(tRp68
S'service_budget'
p69
I1
sS'name'
p70
S'EDGE'
p71
sS'computation_budget'
p72
I1
ssS'workload'
p73
g11
(tRp74
S'n_contents'
p75
I100
sS'playback_rate'
p76
I10
sS'n_chunks'
p77
I200
sS'n_warmup'
p78
I0
sS'rate'
p79
F50
sS'n_measured'
p80
F15000
sS'alpha'
p81
F0.25
sS'n_services'
p82
I1
sS'seed'
p83
I0
sS'wndw_size'
p84
I10
sg70
S'STATIONARY'
p85
ssS'sched_policy'
p86
g11
(tRp87
g70
S'EDF'
p88
ssS'cache_policy'
p89
g11
(tRp90
g70
S'LRU'
p91
ssS'strategy'
p92
g11
(tRp93
g76
I10
sg84
I10
sg70
S'OPTIMAL'
p94
sg77
I200
ssS'content_placement'
p95
g11
(tRp96
g70
S'UNIFORM'
p97
sg77
I200
ssS'cache_placement'
p98
g11
(tRp99
S'network_cache'
p100
F1
sS'cache_budget'
p101
I400
sg70
g71
ssS'desc'
p102
S'strategy: OPTIMAL alpha 0.25'
p103
sS'warmup_strategy'
p104
g11
(tRp105
g77
I200
sg76
I10
sg70
g94
sg84
I10
ssS'topology'
p106
g11
(tRp107
S'nrecv_per_edge'
p108
I10
sg70
S'TISCALI'
p109
ssg11
(tRp110
S'VIDEO_PLAYBACK'
p111
g11
(tRp112
S'ROUTER_HIT_RATIO'
p113
F0
sS'BUFFER_RATIO'
p114
F0.00040000000000000002
sS'CACHE_HIT_RATIO'
p115
F0.98874166666666663
sS'OVERHEAD'
p116
F3.4169363333333331
sS'BUFFERING_PER_CONTENT'
p117
g11
(tRp118
I64
I1
sI7
I1
sI8
I1
sI44
I1
sI79
I1
sI51
I1
ssstp119
a(g11
(tRp120
S'computation_placement'
p121
g11
(tRp122
S'service_budget'
p123
I1
sS'name'
p124
S'EDGE'
p125
sS'computation_budget'
p126
I1
ssS'workload'
p127
g11
(tRp128
S'n_contents'
p129
I100
sS'playback_rate'
p130
I10
sS'n_chunks'
p131
I200
sS'n_warmup'
p132
I0
sS'rate'
p133
F50
sS'n_measured'
p134
F15000
sS'alpha'
p135
F0.5
sS'n_services'
p136
I1
sS'seed'
p137
I0
sS'wndw_size'
p138
I10
sg124
S'STATIONARY'
p139
ssS'sched_policy'
p140
g11
(tRp141
g124
S'EDF'
p142
ssS'cache_policy'
p143
g11
(tRp144
g124
S'LRU'
p145
ssS'strategy'
p146
g11
(tRp147
g130
I10
sg138
I10
sg124
S'OPTIMAL'
p148
sg131
I200
ssS'content_placement'
p149
g11
(tRp150
g124
S'UNIFORM'
p151
sg131
I200
ssS'cache_placement'
p152
g11
(tRp153
S'network_cache'
p154
F1
sS'cache_budget'
p155
I400
sg124
g125
ssS'desc'
p156
S'strategy: OPTIMAL alpha 0.5'
p157
sS'warmup_strategy'
p158
g11
(tRp159
g131
I200
sg130
I10
sg124
g148
sg138
I10
ssS'topology'
p160
g11
(tRp161
S'nrecv_per_edge'
p162
I10
sg124
S'TISCALI'
p163
ssg11
(tRp164
S'VIDEO_PLAYBACK'
p165
g11
(tRp166
S'ROUTER_HIT_RATIO'
p167
F0
sS'BUFFER_RATIO'
p168
F0.00046666666666666666
sS'CACHE_HIT_RATIO'
p169
F0.98882199999999998
sS'OVERHEAD'
p170
F3.3952463333333331
sS'BUFFERING_PER_CONTENT'
p171
g11
(tRp172
I96
I1
sI97
I1
sI4
I2
sI7
I1
sI68
I1
sI91
I1
ssstp173
a(g11
(tRp174
S'computation_placement'
p175
g11
(tRp176
S'service_budget'
p177
I1
sS'name'
p178
S'EDGE'
p179
sS'computation_budget'
p180
I1
ssS'workload'
p181
g11
(tRp182
S'n_contents'
p183
I100
sS'playback_rate'
p184
I10
sS'n_chunks'
p185
I200
sS'n_warmup'
p186
I0
sS'rate'
p187
F50
sS'n_measured'
p188
F15000
sS'alpha'
p189
F0.10000000000000001
sS'n_services'
p190
I1
sS'seed'
p191
I0
sS'wndw_size'
p192
I10
sg178
S'STATIONARY'
p193
ssS'sched_policy'
p194
g11
(tRp195
g178
S'EDF'
p196
ssS'cache_policy'
p197
g11
(tRp198
g178
S'LRU'
p199
ssS'strategy'
p200
g11
(tRp201
g183
I100
sg184
I10
sS'advertisement_period'
p202
F5
sg185
I200
sS'load_balance_distance'
p203
I1
sg192
I10
sg178
S'NDN'
p204
ssS'content_placement'
p205
g11
(tRp206
g178
S'UNIFORM'
p207
sg185
I200
ssS'cache_placement'
p208
g11
(tRp209
S'network_cache'
p210
F1
sS'cache_budget'
p211
I400
sg178
g179
ssS'desc'
p212
S'strategy: NDN alpha 0.1'
p213
sS'warmup_strategy'
p214
g11
(tRp215
g183
I100
sg184
I10
sg202
F5
sg178
g204
sg203
I1
sg192
I10
sg185
I200
ssS'topology'
p216
g11
(tRp217
S'nrecv_per_edge'
p218
I10
sg178
S'TISCALI'
p219
ssg11
(tRp220
S'VIDEO_PLAYBACK'
p221
g11
(tRp222
S'ROUTER_HIT_RATIO'
p223
F0
sS'BUFFER_RATIO'
p224
F4.0467333333333331
sS'CACHE_HIT_RATIO'
p225
F0.8111193333333333
sS'OVERHEAD'
p226
F3.0379533333333333
sS'BUFFERING_PER_CONTENT'
p227
g11
(tRp228
I1
I933
sI2
I749
sI3
I609
sI4
I822
sI5
I884
sI6
I1069
sI7
I749
sI8
I779
sI9
I714
sI10
I646
sI11
I482
sI12
I771
sI13
I446
sI14
I759
sI15
I789
sI16
I1103
sI17
I709
sI18
I939
sI19
I767
sI20
I764
sI21
I719
sI22
I548
sI23
I631
sI24
I672
sI25
I914
sI26
I567
sI27
I778
sI28
I532
sI29
I585
sI30
I690
sI31
I482
sI32
I648
sI33
I630
sI34
I684
sI35
I661
sI36
I643
sI37
I602
sI38
I565
sI39
I488
sI40
I611
sI41
I473
sI42
I501
sI43
I508
sI44
I512
sI45
I598
sI46
I718
sI47
I588
sI48
I505
sI49
I707
sI50
I507
sI51
I754
sI52
I336
sI53
I617
sI54
I454
sI55
I626
sI56
I622
sI57
I613
sI58
I542
sI59
I396
sI60
I527
sI61
I659
sI62
I466
sI63
I522
sI64
I822
sI65
I387
sI66
I481
sI67
I349
sI68
I535
sI69
I395
sI70
I470
sI71
I527
sI72
I409
sI73
I651
sI74
I399
sI75
I579
sI76
I449
sI77
I673
sI78
I596
sI79
I615
sI80
I549
sI81
I545
sI82
I635
sI83
I553
sI84
I675
sI85
I555
sI86
I710
sI87
I375
sI88
I615
sI89
I670
sI90
I500
sI91
I533
sI92
I682
sI93
I672
sI94
I451
sI95
I775
sI96
I543
sI97
I457
sI98
I511
sI99
I474
ssstp229
a(g11
(tRp230
S'computation_placement'
p231
g11
(tRp232
S'service_budget'
p233
I1
sS'name'
p234
S'EDGE'
p235
sS'computation_budget'
p236
I1
ssS'workload'
p237
g11
(tRp238
S'n_contents'
p239
I100
sS'playback_rate'
p240
I10
sS'n_chunks'
p241
I200
sS'n_warmup'
p242
I0
sS'rate'
p243
F50
sS'n_measured'
p244
F15000
sS'alpha'
p245
F0.25
sS'n_services'
p246
I1
sS'seed'
p247
I0
sS'wndw_size'
p248
I10
sg234
S'STATIONARY'
p249
ssS'sched_policy'
p250
g11
(tRp251
g234
S'EDF'
p252
ssS'cache_policy'
p253
g11
(tRp254
g234
S'LRU'
p255
ssS'strategy'
p256
g11
(tRp257
g239
I100
sg240
I10
sS'advertisement_period'
p258
F5
sg241
I200
sS'load_balance_distance'
p259
I1
sg248
I10
sg234
S'NDN'
p260
ssS'content_placement'
p261
g11
(tRp262
g234
S'UNIFORM'
p263
sg241
I200
ssS'cache_placement'
p264
g11
(tRp265
S'network_cache'
p266
F1
sS'cache_budget'
p267
I400
sg234
g235
ssS'desc'
p268
S'strategy: NDN alpha 0.25'
p269
sS'warmup_strategy'
p270
g11
(tRp271
g239
I100
sg240
I10
sg258
F5
sg234
g260
sg259
I1
sg248
I10
sg241
I200
ssS'topology'
p272
g11
(tRp273
S'nrecv_per_edge'
p274
I10
sg234
S'TISCALI'
p275
ssg11
(tRp276
S'VIDEO_PLAYBACK'
p277
g11
(tRp278
S'ROUTER_HIT_RATIO'
p279
F0
sS'BUFFER_RATIO'
p280
F4.1314666666666664
sS'CACHE_HIT_RATIO'
p281
F0.81085069016144884
sS'OVERHEAD'
p282
F3.0014341969630496
sS'BUFFERING_PER_CONTENT'
p283
g11
(tRp284
I1
I2503
sI2
I1791
sI3
I1660
sI4
I1066
sI5
I1389
sI6
I1087
sI7
I944
sI8
I1079
sI9
I911
sI10
I1066
sI11
I778
sI12
I802
sI13
I778
sI14
I783
sI15
I878
sI16
I800
sI17
I748
sI18
I960
sI19
I702
sI20
I493
sI21
I700
sI22
I591
sI23
I600
sI24
I911
sI25
I810
sI26
I718
sI27
I727
sI28
I592
sI29
I673
sI30
I754
sI31
I536
sI32
I734
sI33
I715
sI34
I654
sI35
I516
sI36
I613
sI37
I618
sI38
I543
sI39
I494
sI40
I450
sI41
I881
sI42
I916
sI43
I480
sI44
I421
sI45
I657
sI46
I673
sI47
I603
sI48
I731
sI49
I541
sI50
I419
sI51
I500
sI52
I305
sI53
I557
sI54
I474
sI55
I366
sI56
I442
sI57
I423
sI58
I541
sI59
I552
sI60
I391
sI61
I623
sI62
I365
sI63
I511
sI64
I377
sI65
I285
sI66
I611
sI67
I392
sI68
I498
sI69
I344
sI70
I415
sI71
I526
sI72
I371
sI73
I388
sI74
I492
sI75
I453
sI76
I521
sI77
I539
sI78
I520
sI79
I507
sI80
I287
sI81
I304
sI82
I554
sI83
I306
sI84
I452
sI85
I291
sI86
I412
sI87
I225
sI88
I372
sI89
I474
sI90
I398
sI91
I595
sI92
I338
sI93
I452
sI94
I549
sI95
I430
sI96
I430
sI97
I328
sI98
I468
sI99
I529
ssstp285
a(g11
(tRp286
S'computation_placement'
p287
g11
(tRp288
S'service_budget'
p289
I1
sS'name'
p290
S'EDGE'
p291
sS'computation_budget'
p292
I1
ssS'workload'
p293
g11
(tRp294
S'n_contents'
p295
I100
sS'playback_rate'
p296
I10
sS'n_chunks'
p297
I200
sS'n_warmup'
p298
I0
sS'rate'
p299
F50
sS'n_measured'
p300
F15000
sS'alpha'
p301
F0.75
sS'n_services'
p302
I1
sS'seed'
p303
I0
sS'wndw_size'
p304
I10
sg290
S'STATIONARY'
p305
ssS'sched_policy'
p306
g11
(tRp307
g290
S'EDF'
p308
ssS'cache_policy'
p309
g11
(tRp310
g290
S'LRU'
p311
ssS'strategy'
p312
g11
(tRp313
g296
I10
sg304
I10
sg290
S'OPTIMAL'
p314
sg297
I200
ssS'content_placement'
p315
g11
(tRp316
g290
S'UNIFORM'
p317
sg297
I200
ssS'cache_placement'
p318
g11
(tRp319
S'network_cache'
p320
F1
sS'cache_budget'
p321
I400
sg290
g291
ssS'desc'
p322
S'strategy: OPTIMAL alpha 0.75'
p323
sS'warmup_strategy'
p324
g11
(tRp325
g297
I200
sg296
I10
sg290
g314
sg304
I10
ssS'topology'
p326
g11
(tRp327
S'nrecv_per_edge'
p328
I10
sg290
S'TISCALI'
p329
ssg11
(tRp330
S'VIDEO_PLAYBACK'
p331
g11
(tRp332
S'ROUTER_HIT_RATIO'
p333
F0
sS'BUFFER_RATIO'
p334
F0.00033333333333333332
sS'CACHE_HIT_RATIO'
p335
F0.98760800000000004
sS'OVERHEAD'
p336
F3.320916
sS'BUFFERING_PER_CONTENT'
p337
g11
(tRp338
I17
I1
sI82
I1
sI19
I1
sI25
I1
sI7
I1
ssstp339
a(g11
(tRp340
S'computation_placement'
p341
g11
(tRp342
S'service_budget'
p343
I1
sS'name'
p344
S'EDGE'
p345
sS'computation_budget'
p346
I1
ssS'workload'
p347
g11
(tRp348
S'n_contents'
p349
I100
sS'playback_rate'
p350
I10
sS'n_chunks'
p351
I200
sS'n_warmup'
p352
I0
sS'rate'
p353
F50
sS'n_measured'
p354
F15000
sS'alpha'
p355
F0.5
sS'n_services'
p356
I1
sS'seed'
p357
I0
sS'wndw_size'
p358
I10
sg344
S'STATIONARY'
p359
ssS'sched_policy'
p360
g11
(tRp361
g344
S'EDF'
p362
ssS'cache_policy'
p363
g11
(tRp364
g344
S'LRU'
p365
ssS'strategy'
p366
g11
(tRp367
g349
I100
sg350
I10
sS'advertisement_period'
p368
F5
sg351
I200
sS'load_balance_distance'
p369
I1
sg358
I10
sg344
S'NDN'
p370
ssS'content_placement'
p371
g11
(tRp372
g344
S'UNIFORM'
p373
sg351
I200
ssS'cache_placement'
p374
g11
(tRp375
S'network_cache'
p376
F1
sS'cache_budget'
p377
I400
sg344
g345
ssS'desc'
p378
S'strategy: NDN alpha 0.5'
p379
sS'warmup_strategy'
p380
g11
(tRp381
g349
I100
sg350
I10
sg368
F5
sg344
g370
sg369
I1
sg358
I10
sg351
I200
ssS'topology'
p382
g11
(tRp383
S'nrecv_per_edge'
p384
I10
sg344
S'TISCALI'
p385
ssg11
(tRp386
S'VIDEO_PLAYBACK'
p387
g11
(tRp388
S'ROUTER_HIT_RATIO'
p389
F0
sS'BUFFER_RATIO'
p390
F4.4905999999999997
sS'CACHE_HIT_RATIO'
p391
F0.80778523982286721
sS'OVERHEAD'
p392
F2.9671380648775543
sS'BUFFERING_PER_CONTENT'
p393
g11
(tRp394
I1
I8725
sI2
I4418
sI3
I3253
sI4
I2964
sI5
I1669
sI6
I2109
sI7
I1046
sI8
I1813
sI9
I1150
sI10
I1653
sI11
I1013
sI12
I998
sI13
I1131
sI14
I953
sI15
I1129
sI16
I1134
sI17
I948
sI18
I897
sI19
I917
sI20
I694
sI21
I652
sI22
I610
sI23
I592
sI24
I651
sI25
I630
sI26
I544
sI27
I509
sI28
I434
sI29
I568
sI30
I721
sI31
I660
sI32
I431
sI33
I590
sI34
I336
sI35
I273
sI36
I488
sI37
I414
sI38
I333
sI39
I589
sI40
I418
sI41
I479
sI42
I336
sI43
I337
sI44
I264
sI45
I510
sI46
I349
sI47
I294
sI48
I411
sI49
I292
sI50
I465
sI51
I299
sI52
I410
sI53
I329
sI54
I367
sI55
I394
sI56
I366
sI57
I382
sI58
I273
sI59
I338
sI60
I410
sI61
I517
sI62
I266
sI63
I320
sI64
I110
sI65
I347
sI66
I225
sI67
I331
sI68
I333
sI69
I385
sI70
I352
sI71
I340
sI72
I290
sI73
I275
sI74
I191
sI75
I342
sI76
I348
sI77
I411
sI78
I413
sI79
I121
sI80
I178
sI81
I351
sI82
I254
sI83
I343
sI84
I225
sI85
I125
sI86
I281
sI87
I194
sI88
I294
sI89
I291
sI90
I363
sI91
I412
sI92
I323
sI93
I177
sI94
I189
sI95
I244
sI96
I155
sI97
I192
sI98
I176
sI99
I313
ssstp395
a(g11
(tRp396
S'computation_placement'
p397
g11
(tRp398
S'service_budget'
p399
I1
sS'name'
p400
S'EDGE'
p401
sS'computation_budget'
p402
I1
ssS'workload'
p403
g11
(tRp404
S'n_contents'
p405
I100
sS'playback_rate'
p406
I10
sS'n_chunks'
p407
I200
sS'n_warmup'
p408
I0
sS'rate'
p409
F50
sS'n_measured'
p410
F15000
sS'alpha'
p411
F0.25
sS'n_services'
p412
I1
sS'seed'
p413
I0
sS'wndw_size'
p414
I10
sg400
S'STATIONARY'
p415
ssS'sched_policy'
p416
g11
(tRp417
g400
S'EDF'
p418
ssS'cache_policy'
p419
g11
(tRp420
g400
S'LRU'
p421
ssS'strategy'
p422
g11
(tRp423
g405
I100
sg406
I10
sS'advertisement_period'
p424
F5
sg400
S'IPFS'
p425
sg414
I10
sg407
I200
ssS'content_placement'
p426
g11
(tRp427
g400
S'UNIFORM'
p428
sg407
I200
ssS'cache_placement'
p429
g11
(tRp430
S'network_cache'
p431
F1
sS'cache_budget'
p432
I400
sg400
g401
ssS'desc'
p433
S'strategy: IPFS alpha 0.25'
p434
sS'warmup_strategy'
p435
g11
(tRp436
g405
I100
sg406
I10
sg424
F5
sg400
g425
sg414
I10
sg407
I200
ssS'topology'
p437
g11
(tRp438
S'nrecv_per_edge'
p439
I10
sg400
S'TISCALI'
p440
ssg11
(tRp441
S'VIDEO_PLAYBACK'
p442
g11
(tRp443
S'ROUTER_HIT_RATIO'
p444
F0
sS'BUFFER_RATIO'
p445
F0.046933333333333334
sS'CACHE_HIT_RATIO'
p446
F0.90433666666666668
sS'OVERHEAD'
p447
F7.5329976666666667
sS'BUFFERING_PER_CONTENT'
p448
g11
(tRp449
I1
I19
sI4
I8
sI6
I5
sI9
I23
sI11
I11
sI12
I34
sI14
I39
sI15
I14
sI16
I6
sI18
I23
sI22
I2
sI23
I17
sI24
I9
sI25
I1
sI26
I16
sI28
I13
sI33
I5
sI34
I21
sI35
I2
sI38
I13
sI39
I6
sI41
I39
sI43
I1
sI44
I9
sI45
I4
sI46
I53
sI47
I10
sI48
I6
sI51
I17
sI52
I14
sI53
I7
sI56
I6
sI59
I24
sI60
I47
sI61
I22
sI62
I22
sI63
I1
sI64
I15
sI65
I7
sI66
I13
sI67
I7
sI68
I2
sI71
I2
sI73
I3
sI75
I20
sI77
I3
sI80
I1
sI81
I21
sI82
I20
sI84
I3
sI88
I5
sI90
I1
sI91
I3
sI96
I7
sI99
I2
ssstp450
a(g11
(tRp451
S'computation_placement'
p452
g11
(tRp453
S'service_budget'
p454
I1
sS'name'
p455
S'EDGE'
p456
sS'computation_budget'
p457
I1
ssS'workload'
p458
g11
(tRp459
S'n_contents'
p460
I100
sS'playback_rate'
p461
I10
sS'n_chunks'
p462
I200
sS'n_warmup'
p463
I0
sS'rate'
p464
F50
sS'n_measured'
p465
F15000
sS'alpha'
p466
F0.75
sS'n_services'
p467
I1
sS'seed'
p468
I0
sS'wndw_size'
p469
I10
sg455
S'STATIONARY'
p470
ssS'sched_policy'
p471
g11
(tRp472
g455
S'EDF'
p473
ssS'cache_policy'
p474
g11
(tRp475
g455
S'LRU'
p476
ssS'strategy'
p477
g11
(tRp478
g460
I100
sg461
I10
sS'advertisement_period'
p479
F5
sg462
I200
sS'load_balance_distance'
p480
I1
sg469
I10
sg455
S'NDN'
p481
ssS'content_placement'
p482
g11
(tRp483
g455
S'UNIFORM'
p484
sg462
I200
ssS'cache_placement'
p485
g11
(tRp486
S'network_cache'
p487
F1
sS'cache_budget'
p488
I400
sg455
g456
ssS'desc'
p489
S'strategy: NDN alpha 0.75'
p490
sS'warmup_strategy'
p491
g11
(tRp492
g460
I100
sg461
I10
sg479
F5
sg455
g481
sg480
I1
sg469
I10
sg462
I200
ssS'topology'
p493
g11
(tRp494
S'nrecv_per_edge'
p495
I10
sg455
S'TISCALI'
p496
ssg11
(tRp497
S'VIDEO_PLAYBACK'
p498
g11
(tRp499
S'ROUTER_HIT_RATIO'
p500
F0
sS'BUFFER_RATIO'
p501
F4.8069333333333333
sS'CACHE_HIT_RATIO'
p502
F0.77879360362510552
sS'OVERHEAD'
p503
F2.846237910992635
sS'BUFFERING_PER_CONTENT'
p504
g11
(tRp505
I1
I20160
sI2
I9104
sI3
I6120
sI4
I3745
sI5
I2977
sI6
I1808
sI7
I2519
sI8
I1487
sI9
I1389
sI10
I838
sI11
I1248
sI12
I846
sI13
I738
sI14
I661
sI15
I573
sI16
I539
sI17
I496
sI18
I656
sI19
I419
sI20
I491
sI21
I506
sI22
I597
sI23
I407
sI24
I410
sI25
I371
sI26
I302
sI27
I326
sI28
I523
sI29
I195
sI30
I296
sI31
I343
sI32
I374
sI33
I240
sI34
I233
sI35
I114
sI36
I347
sI37
I293
sI38
I199
sI39
I246
sI40
I211
sI41
I135
sI42
I126
sI43
I227
sI44
I149
sI45
I142
sI46
I101
sI47
I266
sI48
I181
sI49
I159
sI50
I123
sI51
I119
sI52
I180
sI53
I233
sI54
I90
sI55
I229
sI56
I177
sI57
I181
sI58
I256
sI59
I197
sI60
I243
sI61
I128
sI62
I194
sI63
I135
sI64
I154
sI65
I178
sI66
I113
sI67
I91
sI68
I140
sI69
I200
sI70
I128
sI71
I266
sI72
I93
sI73
I126
sI74
I158
sI75
I192
sI76
I115
sI77
I192
sI78
I103
sI79
I72
sI80
I125
sI81
I122
sI82
I277
sI83
I111
sI84
I101
sI85
I72
sI86
I91
sI87
I172
sI88
I147
sI89
I189
sI90
I126
sI91
I134
sI92
I98
sI93
I136
sI94
I64
sI95
I83
sI96
I83
sI97
I125
sI98
I100
sI99
I109
ssstp506
a(g11
(tRp507
S'computation_placement'
p508
g11
(tRp509
S'service_budget'
p510
I1
sS'name'
p511
S'EDGE'
p512
sS'computation_budget'
p513
I1
ssS'workload'
p514
g11
(tRp515
S'n_contents'
p516
I100
sS'playback_rate'
p517
I10
sS'n_chunks'
p518
I200
sS'n_warmup'
p519
I0
sS'rate'
p520
F50
sS'n_measured'
p521
F15000
sS'alpha'
p522
F0.75
sS'n_services'
p523
I1
sS'seed'
p524
I0
sS'wndw_size'
p525
I10
sg511
S'STATIONARY'
p526
ssS'sched_policy'
p527
g11
(tRp528
g511
S'EDF'
p529
ssS'cache_policy'
p530
g11
(tRp531
g511
S'LRU'
p532
ssS'strategy'
p533
g11
(tRp534
g516
I100
sg517
I10
sS'advertisement_period'
p535
F5
sg511
S'IPFS'
p536
sg525
I10
sg518
I200
ssS'content_placement'
p537
g11
(tRp538
g511
S'UNIFORM'
p539
sg518
I200
ssS'cache_placement'
p540
g11
(tRp541
S'network_cache'
p542
F1
sS'cache_budget'
p543
I400
sg511
g512
ssS'desc'
p544
S'strategy: IPFS alpha 0.75'
p545
sS'warmup_strategy'
p546
g11
(tRp547
g516
I100
sg517
I10
sg535
F5
sg511
g536
sg525
I10
sg518
I200
ssS'topology'
p548
g11
(tRp549
S'nrecv_per_edge'
p550
I10
sg511
S'TISCALI'
p551
ssg11
(tRp552
S'VIDEO_PLAYBACK'
p553
g11
(tRp554
S'ROUTER_HIT_RATIO'
p555
F0
sS'BUFFER_RATIO'
p556
F0.07513333333333333
sS'CACHE_HIT_RATIO'
p557
F0.90475133333333335
sS'OVERHEAD'
p558
F7.515800333333333
sS'BUFFERING_PER_CONTENT'
p559
g11
(tRp560
I1
I110
sI2
I155
sI3
I100
sI4
I77
sI5
I49
sI6
I9
sI7
I24
sI8
I11
sI9
I34
sI10
I45
sI11
I1
sI12
I2
sI13
I46
sI14
I87
sI15
I22
sI16
I13
sI17
I1
sI18
I9
sI20
I36
sI21
I2
sI22
I1
sI23
I4
sI24
I4
sI25
I41
sI26
I17
sI27
I10
sI33
I2
sI34
I3
sI39
I8
sI40
I10
sI43
I2
sI46
I5
sI50
I1
sI51
I2
sI53
I7
sI54
I2
sI55
I8
sI58
I13
sI59
I3
sI60
I4
sI61
I1
sI62
I1
sI65
I4
sI66
I7
sI67
I13
sI70
I14
sI71
I10
sI72
I11
sI73
I12
sI74
I18
sI75
I1
sI78
I11
sI82
I2
sI84
I4
sI86
I7
sI88
I1
sI90
I3
sI94
I2
sI96
I6
sI98
I19
ssstp561
a(g11
(tRp562
S'computation_placement'
p563
g11
(tRp564
S'service_budget'
p565
I1
sS'name'
p566
S'EDGE'
p567
sS'computation_budget'
p568
I1
ssS'workload'
p569
g11
(tRp570
S'n_contents'
p571
I100
sS'playback_rate'
p572
I10
sS'n_chunks'
p573
I200
sS'n_warmup'
p574
I0
sS'rate'
p575
F50
sS'n_measured'
p576
F15000
sS'alpha'
p577
F1
sS'n_services'
p578
I1
sS'seed'
p579
I0
sS'wndw_size'
p580
I10
sg566
S'STATIONARY'
p581
ssS'sched_policy'
p582
g11
(tRp583
g566
S'EDF'
p584
ssS'cache_policy'
p585
g11
(tRp586
g566
S'LRU'
p587
ssS'strategy'
p588
g11
(tRp589
g571
I100
sg572
I10
sS'advertisement_period'
p590
F5
sg566
S'IPFS'
p591
sg580
I10
sg573
I200
ssS'content_placement'
p592
g11
(tRp593
g566
S'UNIFORM'
p594
sg573
I200
ssS'cache_placement'
p595
g11
(tRp596
S'network_cache'
p597
F1
sS'cache_budget'
p598
I400
sg566
g567
ssS'desc'
p599
S'strategy: IPFS alpha 1.0'
p600
sS'warmup_strategy'
p601
g11
(tRp602
g571
I100
sg572
I10
sg590
F5
sg566
g591
sg580
I10
sg573
I200
ssS'topology'
p603
g11
(tRp604
S'nrecv_per_edge'
p605
I10
sg566
S'TISCALI'
p606
ssg11
(tRp607
S'VIDEO_PLAYBACK'
p608
g11
(tRp609
S'ROUTER_HIT_RATIO'
p610
F0
sS'BUFFER_RATIO'
p611
F0.077266666666666664
sS'CACHE_HIT_RATIO'
p612
F0.90629566910235215
sS'OVERHEAD'
p613
F7.501949103952211
sS'BUFFERING_PER_CONTENT'
p614
g11
(tRp615
I1
I239
sI2
I263
sI3
I186
sI4
I86
sI5
I2
sI6
I11
sI7
I65
sI8
I5
sI9
I11
sI11
I2
sI12
I5
sI13
I11
sI14
I7
sI15
I1
sI16
I13
sI18
I11
sI19
I28
sI21
I1
sI22
I8
sI23
I16
sI30
I1
sI32
I28
sI33
I2
sI37
I3
sI38
I3
sI44
I6
sI45
I2
sI47
I9
sI50
I2
sI53
I2
sI54
I1
sI57
I6
sI58
I5
sI59
I13
sI62
I1
sI63
I5
sI65
I3
sI68
I1
sI69
I7
sI78
I9
sI80
I15
sI81
I10
sI85
I6
sI87
I10
sI89
I18
sI90
I10
sI92
I8
sI96
I2
ssstp616
a(g11
(tRp617
S'computation_placement'
p618
g11
(tRp619
S'service_budget'
p620
I1
sS'name'
p621
S'EDGE'
p622
sS'computation_budget'
p623
I1
ssS'workload'
p624
g11
(tRp625
S'n_contents'
p626
I100
sS'playback_rate'
p627
I10
sS'n_chunks'
p628
I200
sS'n_warmup'
p629
I0
sS'rate'
p630
F50
sS'n_measured'
p631
F15000
sS'alpha'
p632
F0.10000000000000001
sS'n_services'
p633
I1
sS'seed'
p634
I0
sS'wndw_size'
p635
I10
sg621
S'STATIONARY'
p636
ssS'sched_policy'
p637
g11
(tRp638
g621
S'EDF'
p639
ssS'cache_policy'
p640
g11
(tRp641
g621
S'LRU'
p642
ssS'strategy'
p643
g11
(tRp644
g626
I100
sg627
I10
sS'advertisement_period'
p645
F5
sg621
S'IPFS'
p646
sg635
I10
sg628
I200
ssS'content_placement'
p647
g11
(tRp648
g621
S'UNIFORM'
p649
sg628
I200
ssS'cache_placement'
p650
g11
(tRp651
S'network_cache'
p652
F1
sS'cache_budget'
p653
I400
sg621
g622
ssS'desc'
p654
S'strategy: IPFS alpha 0.1'
p655
sS'warmup_strategy'
p656
g11
(tRp657
g626
I100
sg627
I10
sg645
F5
sg621
g646
sg635
I10
sg628
I200
ssS'topology'
p658
g11
(tRp659
S'nrecv_per_edge'
p660
I10
sg621
S'TISCALI'
p661
ssg11
(tRp662
S'VIDEO_PLAYBACK'
p663
g11
(tRp664
S'ROUTER_HIT_RATIO'
p665
F0
sS'BUFFER_RATIO'
p666
F0.040066666666666667
sS'CACHE_HIT_RATIO'
p667
F0.90318266666666669
sS'OVERHEAD'
p668
F7.5289739999999998
sS'BUFFERING_PER_CONTENT'
p669
g11
(tRp670
I1
I4
sI2
I3
sI3
I7
sI4
I22
sI5
I2
sI6
I1
sI8
I11
sI9
I3
sI11
I14
sI12
I1
sI15
I1
sI16
I54
sI19
I1
sI22
I4
sI23
I5
sI26
I32
sI27
I16
sI29
I43
sI32
I15
sI33
I1
sI35
I5
sI36
I4
sI39
I27
sI41
I1
sI43
I7
sI44
I6
sI46
I21
sI48
I51
sI49
I5
sI52
I2
sI53
I13
sI55
I6
sI56
I16
sI58
I7
sI60
I1
sI62
I7
sI63
I21
sI64
I1
sI66
I13
sI67
I5
sI68
I34
sI72
I1
sI73
I5
sI74
I7
sI76
I1
sI79
I22
sI82
I2
sI83
I3
sI85
I4
sI88
I2
sI90
I37
sI95
I9
sI98
I4
sI99
I11
ssstp671
a(g11
(tRp672
S'computation_placement'
p673
g11
(tRp674
S'service_budget'
p675
I1
sS'name'
p676
S'EDGE'
p677
sS'computation_budget'
p678
I1
ssS'workload'
p679
g11
(tRp680
S'n_contents'
p681
I100
sS'playback_rate'
p682
I10
sS'n_chunks'
p683
I200
sS'n_warmup'
p684
I0
sS'rate'
p685
F50
sS'n_measured'
p686
F15000
sS'alpha'
p687
F0.5
sS'n_services'
p688
I1
sS'seed'
p689
I0
sS'wndw_size'
p690
I10
sg676
S'STATIONARY'
p691
ssS'sched_policy'
p692
g11
(tRp693
g676
S'EDF'
p694
ssS'cache_policy'
p695
g11
(tRp696
g676
S'LRU'
p697
ssS'strategy'
p698
g11
(tRp699
g681
I100
sg682
I10
sS'advertisement_period'
p700
F5
sg676
S'IPFS'
p701
sg690
I10
sg683
I200
ssS'content_placement'
p702
g11
(tRp703
g676
S'UNIFORM'
p704
sg683
I200
ssS'cache_placement'
p705
g11
(tRp706
S'network_cache'
p707
F1
sS'cache_budget'
p708
I400
sg676
g677
ssS'desc'
p709
S'strategy: IPFS alpha 0.5'
p710
sS'warmup_strategy'
p711
g11
(tRp712
g681
I100
sg682
I10
sg700
F5
sg676
g701
sg690
I10
sg683
I200
ssS'topology'
p713
g11
(tRp714
S'nrecv_per_edge'
p715
I10
sg676
S'TISCALI'
p716
ssg11
(tRp717
S'VIDEO_PLAYBACK'
p718
g11
(tRp719
S'ROUTER_HIT_RATIO'
p720
F0
sS'BUFFER_RATIO'
p721
F0.067799999999999999
sS'CACHE_HIT_RATIO'
p722
F0.90368599999999999
sS'OVERHEAD'
p723
F7.5228593333333329
sS'BUFFERING_PER_CONTENT'
p724
g11
(tRp725
I1
I159
sI2
I26
sI3
I38
sI4
I86
sI6
I65
sI8
I63
sI9
I34
sI10
I1
sI12
I42
sI13
I16
sI14
I1
sI16
I17
sI17
I3
sI19
I52
sI20
I7
sI21
I3
sI22
I13
sI23
I7
sI24
I8
sI27
I6
sI28
I1
sI29
I6
sI30
I2
sI31
I1
sI36
I2
sI37
I2
sI38
I6
sI39
I1
sI41
I35
sI43
I9
sI47
I13
sI49
I5
sI54
I9
sI55
I2
sI56
I7
sI60
I8
sI63
I5
sI64
I5
sI65
I2
sI67
I6
sI68
I1
sI69
I1
sI73
I7
sI74
I45
sI75
I2
sI77
I2
sI78
I8
sI79
I9
sI83
I1
sI84
I4
sI85
I25
sI87
I2
sI89
I5
sI90
I84
sI92
I9
sI94
I11
sI95
I25
sI99
I2
ssstp726
a(g11
(tRp727
S'computation_placement'
p728
g11
(tRp729
S'service_budget'
p730
I1
sS'name'
p731
S'EDGE'
p732
sS'computation_budget'
p733
I1
ssS'workload'
p734
g11
(tRp735
S'n_contents'
p736
I100
sS'playback_rate'
p737
I10
sS'n_chunks'
p738
I200
sS'n_warmup'
p739
I0
sS'rate'
p740
F50
sS'n_measured'
p741
F15000
sS'alpha'
p742
F0.10000000000000001
sS'n_services'
p743
I1
sS'seed'
p744
I0
sS'wndw_size'
p745
I10
sg731
S'STATIONARY'
p746
ssS'sched_policy'
p747
g11
(tRp748
g731
S'EDF'
p749
ssS'cache_policy'
p750
g11
(tRp751
g731
S'LRU'
p752
ssS'strategy'
p753
g11
(tRp754
g736
I100
sg737
I10
sS'advertisement_period'
p755
F5
sg731
S'NDN_MEASUREMENT'
p756
sg745
I10
sg738
I200
ssS'content_placement'
p757
g11
(tRp758
g731
S'UNIFORM'
p759
sg738
I200
ssS'cache_placement'
p760
g11
(tRp761
S'network_cache'
p762
F1
sS'cache_budget'
p763
I400
sg731
g732
ssS'desc'
p764
S'strategy: NDN_MEASUREMENT alpha 0.1'
p765
sS'warmup_strategy'
p766
g11
(tRp767
g736
I100
sg737
I10
sg755
F5
sg731
g756
sg745
I10
sg738
I200
ssS'topology'
p768
g11
(tRp769
S'nrecv_per_edge'
p770
I10
sg731
S'TISCALI'
p771
ssg11
(tRp772
S'VIDEO_PLAYBACK'
p773
g11
(tRp774
S'ROUTER_HIT_RATIO'
p775
F0
sS'BUFFER_RATIO'
p776
F0.089599999999999999
sS'CACHE_HIT_RATIO'
p777
F0.84466333333333332
sS'OVERHEAD'
p778
F7.224536333333333
sS'BUFFERING_PER_CONTENT'
p779
g11
(tRp780
I1
I33
sI2
I57
sI3
I40
sI4
I23
sI5
I36
sI6
I13
sI7
I20
sI8
I29
sI9
I14
sI10
I6
sI11
I9
sI12
I10
sI13
I25
sI14
I24
sI15
I24
sI16
I5
sI17
I32
sI18
I23
sI19
I3
sI20
I37
sI21
I7
sI22
I5
sI23
I13
sI24
I6
sI25
I14
sI26
I17
sI27
I1
sI28
I7
sI29
I34
sI30
I25
sI31
I4
sI32
I9
sI33
I9
sI34
I6
sI35
I4
sI36
I27
sI37
I12
sI38
I22
sI39
I14
sI40
I60
sI41
I11
sI42
I1
sI43
I8
sI44
I5
sI45
I7
sI46
I13
sI47
I47
sI48
I30
sI49
I6
sI51
I12
sI52
I17
sI53
I9
sI55
I1
sI56
I14
sI57
I7
sI58
I11
sI59
I8
sI60
I17
sI61
I3
sI62
I12
sI63
I15
sI64
I21
sI65
I12
sI66
I10
sI67
I1
sI68
I8
sI69
I9
sI70
I21
sI71
I10
sI72
I12
sI73
I6
sI74
I10
sI75
I6
sI76
I4
sI78
I2
sI79
I21
sI80
I13
sI81
I4
sI82
I15
sI83
I5
sI84
I5
sI85
I1
sI86
I6
sI87
I1
sI89
I31
sI90
I23
sI92
I8
sI93
I10
sI94
I12
sI95
I14
sI96
I8
sI97
I16
sI98
I4
sI99
I2
ssstp781
a(g11
(tRp782
S'computation_placement'
p783
g11
(tRp784
S'service_budget'
p785
I1
sS'name'
p786
S'EDGE'
p787
sS'computation_budget'
p788
I1
ssS'workload'
p789
g11
(tRp790
S'n_contents'
p791
I100
sS'playback_rate'
p792
I10
sS'n_chunks'
p793
I200
sS'n_warmup'
p794
I0
sS'rate'
p795
F50
sS'n_measured'
p796
F15000
sS'alpha'
p797
F1
sS'n_services'
p798
I1
sS'seed'
p799
I0
sS'wndw_size'
p800
I10
sg786
S'STATIONARY'
p801
ssS'sched_policy'
p802
g11
(tRp803
g786
S'EDF'
p804
ssS'cache_policy'
p805
g11
(tRp806
g786
S'LRU'
p807
ssS'strategy'
p808
g11
(tRp809
g792
I10
sg800
I10
sg786
S'OPTIMAL'
p810
sg793
I200
ssS'content_placement'
p811
g11
(tRp812
g786
S'UNIFORM'
p813
sg793
I200
ssS'cache_placement'
p814
g11
(tRp815
S'network_cache'
p816
F1
sS'cache_budget'
p817
I400
sg786
g787
ssS'desc'
p818
S'strategy: OPTIMAL alpha 1.0'
p819
sS'warmup_strategy'
p820
g11
(tRp821
g793
I200
sg792
I10
sg786
g810
sg800
I10
ssS'topology'
p822
g11
(tRp823
S'nrecv_per_edge'
p824
I10
sg786
S'TISCALI'
p825
ssg11
(tRp826
S'VIDEO_PLAYBACK'
p827
g11
(tRp828
S'ROUTER_HIT_RATIO'
p829
F0
sS'BUFFER_RATIO'
p830
F0.00033333333333333332
sS'CACHE_HIT_RATIO'
p831
F0.98184666666666665
sS'OVERHEAD'
p832
F3.2054693333333333
sS'BUFFERING_PER_CONTENT'
p833
g11
(tRp834
I16
I1
sI73
I1
sI2
I1
sI30
I1
sI54
I1
ssstp835
a(g11
(tRp836
S'computation_placement'
p837
g11
(tRp838
S'service_budget'
p839
I1
sS'name'
p840
S'EDGE'
p841
sS'computation_budget'
p842
I1
ssS'workload'
p843
g11
(tRp844
S'n_contents'
p845
I100
sS'playback_rate'
p846
I10
sS'n_chunks'
p847
I200
sS'n_warmup'
p848
I0
sS'rate'
p849
F50
sS'n_measured'
p850
F15000
sS'alpha'
p851
F1
sS'n_services'
p852
I1
sS'seed'
p853
I0
sS'wndw_size'
p854
I10
sg840
S'STATIONARY'
p855
ssS'sched_policy'
p856
g11
(tRp857
g840
S'EDF'
p858
ssS'cache_policy'
p859
g11
(tRp860
g840
S'LRU'
p861
ssS'strategy'
p862
g11
(tRp863
g845
I100
sg846
I10
sS'advertisement_period'
p864
F5
sg847
I200
sS'load_balance_distance'
p865
I1
sg854
I10
sg840
S'NDN'
p866
ssS'content_placement'
p867
g11
(tRp868
g840
S'UNIFORM'
p869
sg847
I200
ssS'cache_placement'
p870
g11
(tRp871
S'network_cache'
p872
F1
sS'cache_budget'
p873
I400
sg840
g841
ssS'desc'
p874
S'strategy: NDN alpha 1.0'
p875
sS'warmup_strategy'
p876
g11
(tRp877
g845
I100
sg846
I10
sg864
F5
sg840
g866
sg865
I1
sg854
I10
sg847
I200
ssS'topology'
p878
g11
(tRp879
S'nrecv_per_edge'
p880
I10
sg840
S'TISCALI'
p881
ssg11
(tRp882
S'VIDEO_PLAYBACK'
p883
g11
(tRp884
S'ROUTER_HIT_RATIO'
p885
F0
sS'BUFFER_RATIO'
p886
F5.4526666666666666
sS'CACHE_HIT_RATIO'
p887
F0.71454124485147874
sS'OVERHEAD'
p888
F2.670318066114056
sS'BUFFERING_PER_CONTENT'
p889
g11
(tRp890
I1
I30776
sI2
I15200
sI3
I9408
sI4
I5214
sI5
I2855
sI6
I1784
sI7
I1808
sI8
I1676
sI9
I999
sI10
I962
sI11
I674
sI12
I628
sI13
I594
sI14
I420
sI15
I341
sI16
I258
sI17
I404
sI18
I329
sI19
I355
sI20
I285
sI21
I239
sI22
I352
sI23
I170
sI24
I204
sI25
I193
sI26
I261
sI27
I195
sI28
I117
sI29
I279
sI30
I220
sI31
I98
sI32
I101
sI33
I83
sI34
I171
sI35
I108
sI36
I50
sI37
I151
sI38
I88
sI39
I128
sI40
I155
sI41
I145
sI42
I56
sI43
I94
sI44
I86
sI45
I96
sI46
I115
sI47
I30
sI48
I51
sI49
I141
sI50
I42
sI51
I68
sI52
I128
sI53
I15
sI54
I31
sI55
I83
sI56
I73
sI57
I106
sI58
I97
sI59
I70
sI60
I102
sI61
I34
sI62
I35
sI63
I118
sI64
I130
sI65
I120
sI66
I25
sI67
I80
sI68
I60
sI69
I38
sI70
I76
sI71
I64
sI72
I32
sI73
I81
sI74
I51
sI75
I14
sI76
I46
sI77
I47
sI78
I75
sI79
I42
sI80
I71
sI81
I76
sI82
I32
sI83
I48
sI84
I46
sI85
I25
sI86
I62
sI87
I50
sI88
I38
sI89
I16
sI90
I52
sI91
I1
sI92
I28
sI93
I7
sI94
I18
sI95
I16
sI96
I35
sI97
I7
sI98
I21
sI99
I11
ssstp891
a(g11
(tRp892
S'computation_placement'
p893
g11
(tRp894
S'service_budget'
p895
I1
sS'name'
p896
S'EDGE'
p897
sS'computation_budget'
p898
I1
ssS'workload'
p899
g11
(tRp900
S'n_contents'
p901
I100
sS'playback_rate'
p902
I10
sS'n_chunks'
p903
I200
sS'n_warmup'
p904
I0
sS'rate'
p905
F50
sS'n_measured'
p906
F15000
sS'alpha'
p907
F0.25
sS'n_services'
p908
I1
sS'seed'
p909
I0
sS'wndw_size'
p910
I10
sg896
S'STATIONARY'
p911
ssS'sched_policy'
p912
g11
(tRp913
g896
S'EDF'
p914
ssS'cache_policy'
p915
g11
(tRp916
g896
S'LRU'
p917
ssS'strategy'
p918
g11
(tRp919
g901
I100
sg902
I10
sS'advertisement_period'
p920
F5
sg896
S'NDN_MEASUREMENT'
p921
sg910
I10
sg903
I200
ssS'content_placement'
p922
g11
(tRp923
g896
S'UNIFORM'
p924
sg903
I200
ssS'cache_placement'
p925
g11
(tRp926
S'network_cache'
p927
F1
sS'cache_budget'
p928
I400
sg896
g897
ssS'desc'
p929
S'strategy: NDN_MEASUREMENT alpha 0.25'
p930
sS'warmup_strategy'
p931
g11
(tRp932
g901
I100
sg902
I10
sg920
F5
sg896
g921
sg910
I10
sg903
I200
ssS'topology'
p933
g11
(tRp934
S'nrecv_per_edge'
p935
I10
sg896
S'TISCALI'
p936
ssg11
(tRp937
S'VIDEO_PLAYBACK'
p938
g11
(tRp939
S'ROUTER_HIT_RATIO'
p940
F0
sS'BUFFER_RATIO'
p941
F0.069933333333333333
sS'CACHE_HIT_RATIO'
p942
F0.84413000000000005
sS'OVERHEAD'
p943
F7.2105133333333331
sS'BUFFERING_PER_CONTENT'
p944
g11
(tRp945
I1
I10
sI2
I22
sI3
I39
sI4
I10
sI5
I13
sI6
I62
sI7
I11
sI8
I26
sI9
I19
sI10
I1
sI11
I11
sI12
I13
sI13
I39
sI14
I7
sI15
I1
sI16
I18
sI17
I23
sI18
I23
sI19
I13
sI20
I18
sI21
I19
sI22
I8
sI23
I6
sI24
I4
sI25
I19
sI26
I7
sI28
I10
sI29
I13
sI30
I14
sI31
I17
sI32
I18
sI33
I9
sI34
I12
sI35
I11
sI36
I13
sI37
I2
sI38
I2
sI39
I7
sI40
I7
sI41
I1
sI42
I17
sI43
I11
sI44
I11
sI45
I11
sI46
I16
sI47
I24
sI48
I4
sI49
I24
sI50
I12
sI52
I1
sI53
I7
sI54
I1
sI55
I1
sI56
I5
sI57
I10
sI58
I11
sI59
I14
sI60
I8
sI61
I1
sI62
I2
sI63
I21
sI64
I1
sI65
I3
sI66
I1
sI68
I15
sI69
I2
sI70
I8
sI72
I19
sI73
I4
sI74
I3
sI77
I13
sI78
I8
sI79
I1
sI80
I3
sI81
I10
sI82
I5
sI83
I13
sI84
I15
sI85
I12
sI86
I1
sI87
I2
sI88
I3
sI89
I12
sI90
I10
sI91
I9
sI92
I15
sI93
I6
sI94
I12
sI95
I1
sI96
I12
sI97
I10
sI98
I27
sI99
I3
ssstp946
a(g11
(tRp947
S'computation_placement'
p948
g11
(tRp949
S'service_budget'
p950
I1
sS'name'
p951
S'EDGE'
p952
sS'computation_budget'
p953
I1
ssS'workload'
p954
g11
(tRp955
S'n_contents'
p956
I100
sS'playback_rate'
p957
I10
sS'n_chunks'
p958
I200
sS'n_warmup'
p959
I0
sS'rate'
p960
F50
sS'n_measured'
p961
F15000
sS'alpha'
p962
F0.5
sS'n_services'
p963
I1
sS'seed'
p964
I0
sS'wndw_size'
p965
I10
sg951
S'STATIONARY'
p966
ssS'sched_policy'
p967
g11
(tRp968
g951
S'EDF'
p969
ssS'cache_policy'
p970
g11
(tRp971
g951
S'LRU'
p972
ssS'strategy'
p973
g11
(tRp974
g956
I100
sg957
I10
sS'advertisement_period'
p975
F5
sg951
S'NDN_MEASUREMENT'
p976
sg965
I10
sg958
I200
ssS'content_placement'
p977
g11
(tRp978
g951
S'UNIFORM'
p979
sg958
I200
ssS'cache_placement'
p980
g11
(tRp981
S'network_cache'
p982
F1
sS'cache_budget'
p983
I400
sg951
g952
ssS'desc'
p984
S'strategy: NDN_MEASUREMENT alpha 0.5'
p985
sS'warmup_strategy'
p986
g11
(tRp987
g956
I100
sg957
I10
sg975
F5
sg951
g976
sg965
I10
sg958
I200
ssS'topology'
p988
g11
(tRp989
S'nrecv_per_edge'
p990
I10
sg951
S'TISCALI'
p991
ssg11
(tRp992
S'VIDEO_PLAYBACK'
p993
g11
(tRp994
S'ROUTER_HIT_RATIO'
p995
F0
sS'BUFFER_RATIO'
p996
F0.098199999999999996
sS'CACHE_HIT_RATIO'
p997
F0.84374199999999999
sS'OVERHEAD'
p998
F7.145788333333333
sS'BUFFERING_PER_CONTENT'
p999
g11
(tRp1000
I1
I178
sI2
I51
sI3
I87
sI4
I48
sI5
I74
sI6
I13
sI7
I44
sI8
I15
sI9
I31
sI10
I9
sI11
I61
sI12
I25
sI13
I35
sI14
I17
sI15
I36
sI16
I28
sI17
I10
sI18
I20
sI19
I6
sI20
I11
sI21
I13
sI22
I5
sI23
I5
sI24
I29
sI25
I9
sI26
I20
sI27
I32
sI28
I8
sI29
I2
sI30
I4
sI31
I14
sI32
I20
sI33
I12
sI34
I10
sI35
I9
sI36
I8
sI37
I21
sI38
I12
sI39
I7
sI40
I4
sI41
I4
sI42
I26
sI44
I2
sI45
I4
sI46
I1
sI47
I5
sI48
I11
sI49
I22
sI50
I16
sI51
I17
sI52
I1
sI53
I1
sI54
I4
sI56
I16
sI58
I3
sI59
I9
sI60
I11
sI61
I2
sI62
I6
sI63
I18
sI64
I2
sI65
I9
sI66
I9
sI67
I20
sI68
I1
sI69
I1
sI70
I5
sI71
I10
sI72
I9
sI73
I3
sI74
I5
sI75
I12
sI76
I5
sI77
I9
sI80
I12
sI81
I1
sI82
I10
sI85
I1
sI86
I32
sI87
I16
sI89
I13
sI91
I23
sI92
I8
sI93
I5
sI95
I16
sI97
I7
sI98
I7
ssstp1001
a(g11
(tRp1002
S'computation_placement'
p1003
g11
(tRp1004
S'service_budget'
p1005
I1
sS'name'
p1006
S'EDGE'
p1007
sS'computation_budget'
p1008
I1
ssS'workload'
p1009
g11
(tRp1010
S'n_contents'
p1011
I100
sS'playback_rate'
p1012
I10
sS'n_chunks'
p1013
I200
sS'n_warmup'
p1014
I0
sS'rate'
p1015
F50
sS'n_measured'
p1016
F15000
sS'alpha'
p1017
F0.75
sS'n_services'
p1018
I1
sS'seed'
p1019
I0
sS'wndw_size'
p1020
I10
sg1006
S'STATIONARY'
p1021
ssS'sched_policy'
p1022
g11
(tRp1023
g1006
S'EDF'
p1024
ssS'cache_policy'
p1025
g11
(tRp1026
g1006
S'LRU'
p1027
ssS'strategy'
p1028
g11
(tRp1029
g1011
I100
sg1012
I10
sS'advertisement_period'
p1030
F5
sg1006
S'NDN_MEASUREMENT'
p1031
sg1020
I10
sg1013
I200
ssS'content_placement'
p1032
g11
(tRp1033
g1006
S'UNIFORM'
p1034
sg1013
I200
ssS'cache_placement'
p1035
g11
(tRp1036
S'network_cache'
p1037
F1
sS'cache_budget'
p1038
I400
sg1006
g1007
ssS'desc'
p1039
S'strategy: NDN_MEASUREMENT alpha 0.75'
p1040
sS'warmup_strategy'
p1041
g11
(tRp1042
g1011
I100
sg1012
I10
sg1030
F5
sg1006
g1031
sg1020
I10
sg1013
I200
ssS'topology'
p1043
g11
(tRp1044
S'nrecv_per_edge'
p1045
I10
sg1006
S'TISCALI'
p1046
ssg11
(tRp1047
S'VIDEO_PLAYBACK'
p1048
g11
(tRp1049
S'ROUTER_HIT_RATIO'
p1050
F0
sS'BUFFER_RATIO'
p1051
F0.13633333333333333
sS'CACHE_HIT_RATIO'
p1052
F0.84451699999999996
sS'OVERHEAD'
p1053
F6.984623
sS'BUFFERING_PER_CONTENT'
p1054
g11
(tRp1055
I1
I342
sI2
I228
sI3
I172
sI4
I119
sI5
I76
sI6
I42
sI7
I24
sI8
I41
sI9
I23
sI10
I38
sI11
I34
sI12
I36
sI13
I9
sI14
I51
sI15
I38
sI16
I15
sI17
I18
sI18
I30
sI19
I12
sI20
I26
sI21
I13
sI22
I1
sI23
I8
sI24
I35
sI25
I8
sI26
I11
sI27
I25
sI28
I27
sI29
I28
sI30
I16
sI31
I5
sI32
I5
sI33
I10
sI34
I5
sI35
I14
sI36
I16
sI37
I8
sI38
I6
sI39
I4
sI40
I2
sI41
I10
sI42
I7
sI43
I20
sI44
I7
sI45
I11
sI46
I7
sI47
I6
sI48
I6
sI49
I1
sI51
I10
sI52
I4
sI53
I4
sI55
I4
sI56
I2
sI57
I18
sI58
I5
sI59
I3
sI60
I27
sI62
I25
sI63
I12
sI64
I16
sI65
I4
sI66
I1
sI67
I12
sI68
I10
sI69
I2
sI70
I1
sI71
I12
sI72
I19
sI73
I20
sI74
I3
sI75
I12
sI76
I3
sI78
I8
sI79
I22
sI80
I4
sI81
I1
sI82
I14
sI83
I2
sI84
I6
sI85
I2
sI87
I3
sI89
I4
sI90
I9
sI92
I19
sI94
I3
sI95
I3
sI96
I2
sI98
I11
sI99
I7
ssstp1056
a(g11
(tRp1057
S'computation_placement'
p1058
g11
(tRp1059
S'service_budget'
p1060
I1
sS'name'
p1061
S'EDGE'
p1062
sS'computation_budget'
p1063
I1
ssS'workload'
p1064
g11
(tRp1065
S'n_contents'
p1066
I100
sS'playback_rate'
p1067
I10
sS'n_chunks'
p1068
I200
sS'n_warmup'
p1069
I0
sS'rate'
p1070
F50
sS'n_measured'
p1071
F15000
sS'alpha'
p1072
F1
sS'n_services'
p1073
I1
sS'seed'
p1074
I0
sS'wndw_size'
p1075
I10
sg1061
S'STATIONARY'
p1076
ssS'sched_policy'
p1077
g11
(tRp1078
g1061
S'EDF'
p1079
ssS'cache_policy'
p1080
g11
(tRp1081
g1061
S'LRU'
p1082
ssS'strategy'
p1083
g11
(tRp1084
g1066
I100
sg1067
I10
sS'advertisement_period'
p1085
F5
sg1061
S'NDN_MEASUREMENT'
p1086
sg1075
I10
sg1068
I200
ssS'content_placement'
p1087
g11
(tRp1088
g1061
S'UNIFORM'
p1089
sg1068
I200
ssS'cache_placement'
p1090
g11
(tRp1091
S'network_cache'
p1092
F1
sS'cache_budget'
p1093
I400
sg1061
g1062
ssS'desc'
p1094
S'strategy: NDN_MEASUREMENT alpha 1.0'
p1095
sS'warmup_strategy'
p1096
g11
(tRp1097
g1066
I100
sg1067
I10
sg1085
F5
sg1061
g1086
sg1075
I10
sg1068
I200
ssS'topology'
p1098
g11
(tRp1099
S'nrecv_per_edge'
p1100
I10
sg1061
S'TISCALI'
p1101
ssg11
(tRp1102
S'VIDEO_PLAYBACK'
p1103
g11
(tRp1104
S'ROUTER_HIT_RATIO'
p1105
F0
sS'BUFFER_RATIO'
p1106
F0.1928
sS'CACHE_HIT_RATIO'
p1107
F0.85002733333333336
sS'OVERHEAD'
p1108
F6.7838143333333329
sS'BUFFERING_PER_CONTENT'
p1109
g11
(tRp1110
I1
I475
sI2
I363
sI3
I239
sI4
I144
sI5
I115
sI6
I74
sI7
I66
sI8
I78
sI9
I78
sI10
I81
sI11
I51
sI12
I43
sI13
I79
sI14
I79
sI15
I32
sI16
I70
sI17
I31
sI18
I25
sI19
I66
sI20
I36
sI21
I30
sI22
I10
sI23
I48
sI24
I45
sI25
I39
sI26
I19
sI27
I44
sI28
I32
sI29
I7
sI30
I5
sI31
I19
sI32
I12
sI33
I8
sI34
I3
sI35
I10
sI36
I5
sI37
I1
sI38
I24
sI39
I6
sI40
I14
sI41
I1
sI43
I24
sI45
I11
sI46
I6
sI47
I16
sI48
I2
sI49
I4
sI50
I15
sI51
I4
sI53
I14
sI54
I28
sI55
I1
sI56
I1
sI57
I4
sI58
I12
sI59
I5
sI60
I1
sI62
I7
sI63
I2
sI64
I7
sI66
I18
sI67
I1
sI68
I16
sI71
I2
sI73
I2
sI74
I2
sI75
I6
sI77
I3
sI78
I2
sI80
I6
sI83
I10
sI86
I1
sI87
I10
sI89
I4
sI91
I24
sI92
I1
sI93
I4
sI94
I1
sI96
I1
sI97
I2
sI98
I2
sI99
I3
ssstp1111
atRp1112
sb.