ccopy_reg
_reconstructor
p1
(cicarus.results.readwrite
ResultSet
p2
c__builtin__
object
p3
NtRp4
(dp5
S'attr'
p6
(dp7
sS'_results'
p8
ccollections
deque
p9
((lp10
(cicarus.util
Tree
p11
(tRp12
S'computation_placement'
p13
g11
(tRp14
S'service_budget'
p15
I1
sS'name'
p16
S'EDGE'
p17
sS'computation_budget'
p18
I1
ssS'workload'
p19
g11
(tRp20
S'n_contents'
p21
I100
sS'playback_rate'
p22
I10
sS'n_chunks'
p23
I200
sS'n_warmup'
p24
I0
sS'rate'
p25
F50
sS'n_measured'
p26
F15000
sS'alpha'
p27
F0.75
sS'n_services'
p28
I1
sS'seed'
p29
I0
sS'wndw_size'
p30
I10
sg16
S'STATIONARY'
p31
ssS'sched_policy'
p32
g11
(tRp33
g16
S'EDF'
p34
ssS'cache_policy'
p35
g11
(tRp36
g16
S'LRU'
p37
ssS'strategy'
p38
g11
(tRp39
g21
I100
sg22
I10
sS'advertisement_period'
p40
F5
sg23
I200
sS'load_balance_distance'
p41
I1
sg30
I15
sg16
S'NDN'
p42
ssS'content_placement'
p43
g11
(tRp44
g16
S'UNIFORM'
p45
sg23
I200
ssS'cache_placement'
p46
g11
(tRp47
S'network_cache'
p48
F1
sS'cache_budget'
p49
I400
sg16
g17
ssS'desc'
p50
S'strategy: NDN buffer size 15'
p51
sS'warmup_strategy'
p52
g11
(tRp53
g21
I100
sg22
I10
sg40
F5
sg16
g42
sg41
I1
sg30
I15
sg23
I200
ssS'topology'
p54
g11
(tRp55
S'nrecv_per_edge'
p56
I10
sg16
S'TISCALI'
p57
ssg11
(tRp58
S'VIDEO_PLAYBACK'
p59
g11
(tRp60
S'ROUTER_HIT_RATIO'
p61
F0
sS'BUFFER_RATIO'
p62
F2.8744666666666667
sS'CACHE_HIT_RATIO'
p63
F0.7754484447803488
sS'OVERHEAD'
p64
F2.8438275420503234
sS'BUFFERING_PER_CONTENT'
p65
g11
(tRp66
I1
I10286
sI2
I5000
sI3
I3382
sI4
I2790
sI5
I1852
sI6
I1239
sI7
I1692
sI8
I956
sI9
I864
sI10
I516
sI11
I729
sI12
I501
sI13
I511
sI14
I422
sI15
I378
sI16
I375
sI17
I419
sI18
I325
sI19
I271
sI20
I310
sI21
I197
sI22
I176
sI23
I484
sI24
I266
sI25
I247
sI26
I184
sI27
I230
sI28
I279
sI29
I234
sI30
I237
sI31
I310
sI32
I231
sI33
I214
sI34
I196
sI35
I190
sI36
I97
sI37
I111
sI38
I177
sI39
I129
sI40
I79
sI41
I177
sI42
I238
sI43
I93
sI44
I182
sI45
I91
sI46
I198
sI47
I189
sI48
I136
sI49
I97
sI50
I98
sI51
I102
sI52
I158
sI53
I108
sI54
I232
sI55
I155
sI56
I165
sI57
I51
sI58
I164
sI59
I73
sI60
I43
sI61
I100
sI62
I96
sI63
I116
sI64
I179
sI65
I145
sI66
I117
sI67
I111
sI68
I44
sI69
I83
sI70
I140
sI71
I81
sI72
I83
sI73
I32
sI74
I128
sI75
I22
sI76
I82
sI77
I88
sI78
I67
sI79
I90
sI80
I131
sI81
I56
sI82
I124
sI83
I75
sI84
I27
sI85
I67
sI86
I56
sI87
I114
sI88
I76
sI89
I51
sI90
I68
sI91
I92
sI92
I132
sI93
I27
sI94
I28
sI95
I55
sI96
I59
sI97
I88
sI98
I106
sI99
I45
ssstp67
a(g11
(tRp68
S'computation_placement'
p69
g11
(tRp70
S'service_budget'
p71
I1
sS'name'
p72
S'EDGE'
p73
sS'computation_budget'
p74
I1
ssS'workload'
p75
g11
(tRp76
S'n_contents'
p77
I100
sS'playback_rate'
p78
I10
sS'n_chunks'
p79
I200
sS'n_warmup'
p80
I0
sS'rate'
p81
F50
sS'n_measured'
p82
F15000
sS'alpha'
p83
F0.75
sS'n_services'
p84
I1
sS'seed'
p85
I0
sS'wndw_size'
p86
I10
sg72
S'STATIONARY'
p87
ssS'sched_policy'
p88
g11
(tRp89
g72
S'EDF'
p90
ssS'cache_policy'
p91
g11
(tRp92
g72
S'LRU'
p93
ssS'strategy'
p94
g11
(tRp95
g78
I10
sg86
I10
sg72
S'OPTIMAL'
p96
sg79
I200
ssS'content_placement'
p97
g11
(tRp98
g72
S'UNIFORM'
p99
sg79
I200
ssS'cache_placement'
p100
g11
(tRp101
S'network_cache'
p102
F1
sS'cache_budget'
p103
I400
sg72
g73
ssS'desc'
p104
S'strategy: OPTIMAL buffer size 10'
p105
sS'warmup_strategy'
p106
g11
(tRp107
g79
I200
sg78
I10
sg72
g96
sg86
I10
ssS'topology'
p108
g11
(tRp109
S'nrecv_per_edge'
p110
I10
sg72
S'TISCALI'
p111
ssg11
(tRp112
S'VIDEO_PLAYBACK'
p113
g11
(tRp114
S'ROUTER_HIT_RATIO'
p115
F0
sS'BUFFER_RATIO'
p116
F0.00033333333333333332
sS'CACHE_HIT_RATIO'
p117
F0.98760800000000004
sS'OVERHEAD'
p118
F3.320916
sS'BUFFERING_PER_CONTENT'
p119
g11
(tRp120
I17
I1
sI82
I1
sI19
I1
sI25
I1
sI7
I1
ssstp121
a(g11
(tRp122
S'computation_placement'
p123
g11
(tRp124
S'service_budget'
p125
I1
sS'name'
p126
S'EDGE'
p127
sS'computation_budget'
p128
I1
ssS'workload'
p129
g11
(tRp130
S'n_contents'
p131
I100
sS'playback_rate'
p132
I10
sS'n_chunks'
p133
I200
sS'n_warmup'
p134
I0
sS'rate'
p135
F50
sS'n_measured'
p136
F15000
sS'alpha'
p137
F0.75
sS'n_services'
p138
I1
sS'seed'
p139
I0
sS'wndw_size'
p140
I10
sg126
S'STATIONARY'
p141
ssS'sched_policy'
p142
g11
(tRp143
g126
S'EDF'
p144
ssS'cache_policy'
p145
g11
(tRp146
g126
S'LRU'
p147
ssS'strategy'
p148
g11
(tRp149
g131
I100
sg132
I10
sS'advertisement_period'
p150
F5
sg126
S'IPFS'
p151
sg140
I15
sg133
I200
ssS'content_placement'
p152
g11
(tRp153
g126
S'UNIFORM'
p154
sg133
I200
ssS'cache_placement'
p155
g11
(tRp156
S'network_cache'
p157
F1
sS'cache_budget'
p158
I400
sg126
g127
ssS'desc'
p159
S'strategy: IPFS buffer size 15'
p160
sS'warmup_strategy'
p161
g11
(tRp162
g131
I100
sg132
I10
sg150
F5
sg126
g151
sg140
I15
sg133
I200
ssS'topology'
p163
g11
(tRp164
S'nrecv_per_edge'
p165
I10
sg126
S'TISCALI'
p166
ssg11
(tRp167
S'VIDEO_PLAYBACK'
p168
g11
(tRp169
S'ROUTER_HIT_RATIO'
p170
F0
sS'BUFFER_RATIO'
p171
F0.033000000000000002
sS'CACHE_HIT_RATIO'
p172
F0.90422609394245979
sS'OVERHEAD'
p173
F7.5219211851397505
sS'BUFFERING_PER_CONTENT'
p174
g11
(tRp175
I1
I99
sI2
I79
sI3
I20
sI4
I62
sI5
I1
sI6
I18
sI7
I35
sI8
I1
sI9
I13
sI12
I12
sI13
I1
sI16
I7
sI17
I2
sI20
I7
sI21
I18
sI22
I1
sI25
I1
sI31
I4
sI32
I2
sI39
I8
sI41
I15
sI42
I1
sI46
I1
sI47
I3
sI52
I1
sI59
I4
sI64
I10
sI67
I5
sI70
I4
sI73
I1
sI75
I4
sI76
I10
sI78
I4
sI82
I4
sI84
I4
sI85
I2
sI91
I13
sI92
I2
sI94
I7
sI97
I5
sI99
I4
ssstp176
a(g11
(tRp177
S'computation_placement'
p178
g11
(tRp179
S'service_budget'
p180
I1
sS'name'
p181
S'EDGE'
p182
sS'computation_budget'
p183
I1
ssS'workload'
p184
g11
(tRp185
S'n_contents'
p186
I100
sS'playback_rate'
p187
I10
sS'n_chunks'
p188
I200
sS'n_warmup'
p189
I0
sS'rate'
p190
F50
sS'n_measured'
p191
F15000
sS'alpha'
p192
F0.75
sS'n_services'
p193
I1
sS'seed'
p194
I0
sS'wndw_size'
p195
I10
sg181
S'STATIONARY'
p196
ssS'sched_policy'
p197
g11
(tRp198
g181
S'EDF'
p199
ssS'cache_policy'
p200
g11
(tRp201
g181
S'LRU'
p202
ssS'strategy'
p203
g11
(tRp204
g186
I100
sg187
I10
sS'advertisement_period'
p205
F5
sg181
S'IPFS'
p206
sg195
I20
sg188
I200
ssS'content_placement'
p207
g11
(tRp208
g181
S'UNIFORM'
p209
sg188
I200
ssS'cache_placement'
p210
g11
(tRp211
S'network_cache'
p212
F1
sS'cache_budget'
p213
I400
sg181
g182
ssS'desc'
p214
S'strategy: IPFS buffer size 20'
p215
sS'warmup_strategy'
p216
g11
(tRp217
g186
I100
sg187
I10
sg205
F5
sg181
g206
sg195
I20
sg188
I200
ssS'topology'
p218
g11
(tRp219
S'nrecv_per_edge'
p220
I10
sg181
S'TISCALI'
p221
ssg11
(tRp222
S'VIDEO_PLAYBACK'
p223
g11
(tRp224
S'ROUTER_HIT_RATIO'
p225
F0
sS'BUFFER_RATIO'
p226
F0.016466666666666668
sS'CACHE_HIT_RATIO'
p227
F0.90329366666666666
sS'OVERHEAD'
p228
F7.5184413333333335
sS'BUFFERING_PER_CONTENT'
p229
g11
(tRp230
I64
I12
sI1
I12
sI2
I19
sI3
I59
sI4
I25
sI5
I17
sI70
I11
sI7
I30
sI9
I15
sI10
I3
sI11
I7
sI12
I1
sI45
I9
sI14
I2
sI79
I2
sI17
I2
sI99
I9
sI85
I2
sI23
I1
sI39
I3
sI49
I6
ssstp231
a(g11
(tRp232
S'computation_placement'
p233
g11
(tRp234
S'service_budget'
p235
I1
sS'name'
p236
S'EDGE'
p237
sS'computation_budget'
p238
I1
ssS'workload'
p239
g11
(tRp240
S'n_contents'
p241
I100
sS'playback_rate'
p242
I10
sS'n_chunks'
p243
I200
sS'n_warmup'
p244
I0
sS'rate'
p245
F50
sS'n_measured'
p246
F15000
sS'alpha'
p247
F0.75
sS'n_services'
p248
I1
sS'seed'
p249
I0
sS'wndw_size'
p250
I10
sg236
S'STATIONARY'
p251
ssS'sched_policy'
p252
g11
(tRp253
g236
S'EDF'
p254
ssS'cache_policy'
p255
g11
(tRp256
g236
S'LRU'
p257
ssS'strategy'
p258
g11
(tRp259
g242
I10
sg250
I30
sg236
S'OPTIMAL'
p260
sg243
I200
ssS'content_placement'
p261
g11
(tRp262
g236
S'UNIFORM'
p263
sg243
I200
ssS'cache_placement'
p264
g11
(tRp265
S'network_cache'
p266
F1
sS'cache_budget'
p267
I400
sg236
g237
ssS'desc'
p268
S'strategy: OPTIMAL buffer size 30'
p269
sS'warmup_strategy'
p270
g11
(tRp271
g243
I200
sg242
I10
sg236
g260
sg250
I30
ssS'topology'
p272
g11
(tRp273
S'nrecv_per_edge'
p274
I10
sg236
S'TISCALI'
p275
ssg11
(tRp276
S'VIDEO_PLAYBACK'
p277
g11
(tRp278
S'ROUTER_HIT_RATIO'
p279
F0
sS'BUFFER_RATIO'
p280
F0
sS'CACHE_HIT_RATIO'
p281
F0.98895433333333338
sS'OVERHEAD'
p282
F3.7221959999999998
sS'BUFFERING_PER_CONTENT'
p283
g11
(tRp284
sstp285
a(g11
(tRp286
S'computation_placement'
p287
g11
(tRp288
S'service_budget'
p289
I1
sS'name'
p290
S'EDGE'
p291
sS'computation_budget'
p292
I1
ssS'workload'
p293
g11
(tRp294
S'n_contents'
p295
I100
sS'playback_rate'
p296
I10
sS'n_chunks'
p297
I200
sS'n_warmup'
p298
I0
sS'rate'
p299
F50
sS'n_measured'
p300
F15000
sS'alpha'
p301
F0.75
sS'n_services'
p302
I1
sS'seed'
p303
I0
sS'wndw_size'
p304
I10
sg290
S'STATIONARY'
p305
ssS'sched_policy'
p306
g11
(tRp307
g290
S'EDF'
p308
ssS'cache_policy'
p309
g11
(tRp310
g290
S'LRU'
p311
ssS'strategy'
p312
g11
(tRp313
g295
I100
sg296
I10
sS'advertisement_period'
p314
F5
sg290
S'IPFS'
p315
sg304
I10
sg297
I200
ssS'content_placement'
p316
g11
(tRp317
g290
S'UNIFORM'
p318
sg297
I200
ssS'cache_placement'
p319
g11
(tRp320
S'network_cache'
p321
F1
sS'cache_budget'
p322
I400
sg290
g291
ssS'desc'
p323
S'strategy: IPFS buffer size 10'
p324
sS'warmup_strategy'
p325
g11
(tRp326
g295
I100
sg296
I10
sg314
F5
sg290
g315
sg304
I10
sg297
I200
ssS'topology'
p327
g11
(tRp328
S'nrecv_per_edge'
p329
I10
sg290
S'TISCALI'
p330
ssg11
(tRp331
S'VIDEO_PLAYBACK'
p332
g11
(tRp333
S'ROUTER_HIT_RATIO'
p334
F0
sS'BUFFER_RATIO'
p335
F0.07513333333333333
sS'CACHE_HIT_RATIO'
p336
F0.90475133333333335
sS'OVERHEAD'
p337
F7.515800333333333
sS'BUFFERING_PER_CONTENT'
p338
g11
(tRp339
I1
I110
sI2
I155
sI3
I100
sI4
I77
sI5
I49
sI6
I9
sI7
I24
sI8
I11
sI9
I34
sI10
I45
sI11
I1
sI12
I2
sI13
I46
sI14
I87
sI15
I22
sI16
I13
sI17
I1
sI18
I9
sI20
I36
sI21
I2
sI22
I1
sI23
I4
sI24
I4
sI25
I41
sI26
I17
sI27
I10
sI33
I2
sI34
I3
sI39
I8
sI40
I10
sI43
I2
sI46
I5
sI50
I1
sI51
I2
sI53
I7
sI54
I2
sI55
I8
sI58
I13
sI59
I3
sI60
I4
sI61
I1
sI62
I1
sI65
I4
sI66
I7
sI67
I13
sI70
I14
sI71
I10
sI72
I11
sI73
I12
sI74
I18
sI75
I1
sI78
I11
sI82
I2
sI84
I4
sI86
I7
sI88
I1
sI90
I3
sI94
I2
sI96
I6
sI98
I19
ssstp340
a(g11
(tRp341
S'computation_placement'
p342
g11
(tRp343
S'service_budget'
p344
I1
sS'name'
p345
S'EDGE'
p346
sS'computation_budget'
p347
I1
ssS'workload'
p348
g11
(tRp349
S'n_contents'
p350
I100
sS'playback_rate'
p351
I10
sS'n_chunks'
p352
I200
sS'n_warmup'
p353
I0
sS'rate'
p354
F50
sS'n_measured'
p355
F15000
sS'alpha'
p356
F0.75
sS'n_services'
p357
I1
sS'seed'
p358
I0
sS'wndw_size'
p359
I10
sg345
S'STATIONARY'
p360
ssS'sched_policy'
p361
g11
(tRp362
g345
S'EDF'
p363
ssS'cache_policy'
p364
g11
(tRp365
g345
S'LRU'
p366
ssS'strategy'
p367
g11
(tRp368
g351
I10
sg359
I15
sg345
S'OPTIMAL'
p369
sg352
I200
ssS'content_placement'
p370
g11
(tRp371
g345
S'UNIFORM'
p372
sg352
I200
ssS'cache_placement'
p373
g11
(tRp374
S'network_cache'
p375
F1
sS'cache_budget'
p376
I400
sg345
g346
ssS'desc'
p377
S'strategy: OPTIMAL buffer size 15'
p378
sS'warmup_strategy'
p379
g11
(tRp380
g352
I200
sg351
I10
sg345
g369
sg359
I15
ssS'topology'
p381
g11
(tRp382
S'nrecv_per_edge'
p383
I10
sg345
S'TISCALI'
p384
ssg11
(tRp385
S'VIDEO_PLAYBACK'
p386
g11
(tRp387
S'ROUTER_HIT_RATIO'
p388
F0
sS'BUFFER_RATIO'
p389
F6.666666666666667e-05
sS'CACHE_HIT_RATIO'
p390
F0.98759699999999995
sS'OVERHEAD'
p391
F3.420642
sS'BUFFERING_PER_CONTENT'
p392
g11
(tRp393
I5
I1
ssstp394
a(g11
(tRp395
S'computation_placement'
p396
g11
(tRp397
S'service_budget'
p398
I1
sS'name'
p399
S'EDGE'
p400
sS'computation_budget'
p401
I1
ssS'workload'
p402
g11
(tRp403
S'n_contents'
p404
I100
sS'playback_rate'
p405
I10
sS'n_chunks'
p406
I200
sS'n_warmup'
p407
I0
sS'rate'
p408
F50
sS'n_measured'
p409
F15000
sS'alpha'
p410
F0.75
sS'n_services'
p411
I1
sS'seed'
p412
I0
sS'wndw_size'
p413
I10
sg399
S'STATIONARY'
p414
ssS'sched_policy'
p415
g11
(tRp416
g399
S'EDF'
p417
ssS'cache_policy'
p418
g11
(tRp419
g399
S'LRU'
p420
ssS'strategy'
p421
g11
(tRp422
g405
I10
sg413
I20
sg399
S'OPTIMAL'
p423
sg406
I200
ssS'content_placement'
p424
g11
(tRp425
g399
S'UNIFORM'
p426
sg406
I200
ssS'cache_placement'
p427
g11
(tRp428
S'network_cache'
p429
F1
sS'cache_budget'
p430
I400
sg399
g400
ssS'desc'
p431
S'strategy: OPTIMAL buffer size 20'
p432
sS'warmup_strategy'
p433
g11
(tRp434
g406
I200
sg405
I10
sg399
g423
sg413
I20
ssS'topology'
p435
g11
(tRp436
S'nrecv_per_edge'
p437
I10
sg399
S'TISCALI'
p438
ssg11
(tRp439
S'VIDEO_PLAYBACK'
p440
g11
(tRp441
S'ROUTER_HIT_RATIO'
p442
F0
sS'BUFFER_RATIO'
p443
F6.666666666666667e-05
sS'CACHE_HIT_RATIO'
p444
F0.98811933333333335
sS'OVERHEAD'
p445
F3.5331906666666666
sS'BUFFERING_PER_CONTENT'
p446
g11
(tRp447
I93
I1
ssstp448
a(g11
(tRp449
S'computation_placement'
p450
g11
(tRp451
S'service_budget'
p452
I1
sS'name'
p453
S'EDGE'
p454
sS'computation_budget'
p455
I1
ssS'workload'
p456
g11
(tRp457
S'n_contents'
p458
I100
sS'playback_rate'
p459
I10
sS'n_chunks'
p460
I200
sS'n_warmup'
p461
I0
sS'rate'
p462
F50
sS'n_measured'
p463
F15000
sS'alpha'
p464
F0.75
sS'n_services'
p465
I1
sS'seed'
p466
I0
sS'wndw_size'
p467
I10
sg453
S'STATIONARY'
p468
ssS'sched_policy'
p469
g11
(tRp470
g453
S'EDF'
p471
ssS'cache_policy'
p472
g11
(tRp473
g453
S'LRU'
p474
ssS'strategy'
p475
g11
(tRp476
g458
I100
sg459
I10
sS'advertisement_period'
p477
F5
sg460
I200
sS'load_balance_distance'
p478
I1
sg467
I20
sg453
S'NDN'
p479
ssS'content_placement'
p480
g11
(tRp481
g453
S'UNIFORM'
p482
sg460
I200
ssS'cache_placement'
p483
g11
(tRp484
S'network_cache'
p485
F1
sS'cache_budget'
p486
I400
sg453
g454
ssS'desc'
p487
S'strategy: NDN buffer size 20'
p488
sS'warmup_strategy'
p489
g11
(tRp490
g458
I100
sg459
I10
sg477
F5
sg453
g479
sg478
I1
sg467
I20
sg460
I200
ssS'topology'
p491
g11
(tRp492
S'nrecv_per_edge'
p493
I10
sg453
S'TISCALI'
p494
ssg11
(tRp495
S'VIDEO_PLAYBACK'
p496
g11
(tRp497
S'ROUTER_HIT_RATIO'
p498
F0
sS'BUFFER_RATIO'
p499
F1.8978666666666666
sS'CACHE_HIT_RATIO'
p500
F0.7823330752126042
sS'OVERHEAD'
p501
F2.8445068984549366
sS'BUFFERING_PER_CONTENT'
p502
g11
(tRp503
I1
I6064
sI2
I3484
sI3
I2442
sI4
I1956
sI5
I1571
sI6
I1094
sI7
I1059
sI8
I533
sI9
I541
sI10
I531
sI11
I395
sI12
I392
sI13
I283
sI14
I312
sI15
I295
sI16
I233
sI17
I225
sI18
I189
sI19
I199
sI20
I189
sI21
I150
sI22
I175
sI23
I196
sI24
I183
sI25
I149
sI26
I162
sI27
I193
sI28
I238
sI29
I93
sI30
I141
sI31
I178
sI32
I140
sI33
I159
sI34
I119
sI35
I129
sI36
I169
sI37
I90
sI38
I91
sI39
I94
sI40
I78
sI41
I143
sI42
I42
sI43
I117
sI44
I80
sI45
I84
sI46
I93
sI47
I70
sI48
I101
sI49
I65
sI50
I63
sI51
I62
sI52
I83
sI53
I40
sI54
I81
sI55
I92
sI56
I66
sI57
I90
sI58
I73
sI59
I56
sI60
I38
sI61
I106
sI62
I73
sI63
I30
sI64
I57
sI65
I69
sI66
I60
sI67
I59
sI68
I40
sI69
I92
sI70
I17
sI71
I33
sI72
I96
sI73
I79
sI74
I99
sI75
I70
sI76
I103
sI77
I36
sI78
I26
sI79
I38
sI80
I54
sI81
I37
sI82
I31
sI83
I72
sI84
I36
sI85
I42
sI86
I38
sI87
I85
sI88
I35
sI89
I41
sI90
I35
sI91
I28
sI92
I16
sI93
I44
sI94
I34
sI95
I46
sI96
I24
sI97
I53
sI98
I50
sI99
I31
ssstp504
a(g11
(tRp505
S'computation_placement'
p506
g11
(tRp507
S'service_budget'
p508
I1
sS'name'
p509
S'EDGE'
p510
sS'computation_budget'
p511
I1
ssS'workload'
p512
g11
(tRp513
S'n_contents'
p514
I100
sS'playback_rate'
p515
I10
sS'n_chunks'
p516
I200
sS'n_warmup'
p517
I0
sS'rate'
p518
F50
sS'n_measured'
p519
F15000
sS'alpha'
p520
F0.75
sS'n_services'
p521
I1
sS'seed'
p522
I0
sS'wndw_size'
p523
I10
sg509
S'STATIONARY'
p524
ssS'sched_policy'
p525
g11
(tRp526
g509
S'EDF'
p527
ssS'cache_policy'
p528
g11
(tRp529
g509
S'LRU'
p530
ssS'strategy'
p531
g11
(tRp532
g514
I100
sg515
I10
sS'advertisement_period'
p533
F5
sg516
I200
sS'load_balance_distance'
p534
I1
sg523
I25
sg509
S'NDN'
p535
ssS'content_placement'
p536
g11
(tRp537
g509
S'UNIFORM'
p538
sg516
I200
ssS'cache_placement'
p539
g11
(tRp540
S'network_cache'
p541
F1
sS'cache_budget'
p542
I400
sg509
g510
ssS'desc'
p543
S'strategy: NDN buffer size 25'
p544
sS'warmup_strategy'
p545
g11
(tRp546
g514
I100
sg515
I10
sg533
F5
sg509
g535
sg534
I1
sg523
I25
sg516
I200
ssS'topology'
p547
g11
(tRp548
S'nrecv_per_edge'
p549
I10
sg509
S'TISCALI'
p550
ssg11
(tRp551
S'VIDEO_PLAYBACK'
p552
g11
(tRp553
S'ROUTER_HIT_RATIO'
p554
F0
sS'BUFFER_RATIO'
p555
F1.3337333333333334
sS'CACHE_HIT_RATIO'
p556
F0.78363042585633413
sS'OVERHEAD'
p557
F2.8258002442826307
sS'BUFFERING_PER_CONTENT'
p558
g11
(tRp559
I1
I4467
sI2
I2655
sI3
I1774
sI4
I1010
sI5
I989
sI6
I612
sI7
I669
sI8
I364
sI9
I348
sI10
I322
sI11
I304
sI12
I275
sI13
I217
sI14
I186
sI15
I180
sI16
I227
sI17
I196
sI18
I183
sI19
I232
sI20
I160
sI21
I157
sI22
I180
sI23
I109
sI24
I154
sI25
I97
sI26
I141
sI27
I111
sI28
I124
sI29
I92
sI30
I67
sI31
I102
sI32
I125
sI33
I134
sI34
I43
sI35
I63
sI36
I58
sI37
I171
sI38
I94
sI39
I50
sI40
I93
sI41
I85
sI42
I90
sI43
I67
sI44
I70
sI45
I95
sI46
I38
sI47
I62
sI48
I86
sI49
I19
sI50
I29
sI51
I33
sI52
I71
sI53
I83
sI54
I48
sI55
I59
sI56
I22
sI57
I49
sI58
I55
sI59
I37
sI60
I44
sI61
I28
sI62
I55
sI63
I55
sI64
I65
sI65
I20
sI66
I41
sI67
I30
sI68
I12
sI69
I30
sI70
I26
sI71
I33
sI72
I56
sI73
I27
sI74
I41
sI75
I19
sI76
I11
sI77
I80
sI78
I15
sI79
I95
sI80
I23
sI81
I34
sI82
I42
sI83
I29
sI84
I60
sI85
I8
sI86
I25
sI87
I22
sI88
I52
sI89
I14
sI90
I27
sI91
I32
sI92
I30
sI93
I28
sI94
I20
sI95
I44
sI96
I38
sI97
I28
sI98
I22
sI99
I12
ssstp560
a(g11
(tRp561
S'computation_placement'
p562
g11
(tRp563
S'service_budget'
p564
I1
sS'name'
p565
S'EDGE'
p566
sS'computation_budget'
p567
I1
ssS'workload'
p568
g11
(tRp569
S'n_contents'
p570
I100
sS'playback_rate'
p571
I10
sS'n_chunks'
p572
I200
sS'n_warmup'
p573
I0
sS'rate'
p574
F50
sS'n_measured'
p575
F15000
sS'alpha'
p576
F0.75
sS'n_services'
p577
I1
sS'seed'
p578
I0
sS'wndw_size'
p579
I10
sg565
S'STATIONARY'
p580
ssS'sched_policy'
p581
g11
(tRp582
g565
S'EDF'
p583
ssS'cache_policy'
p584
g11
(tRp585
g565
S'LRU'
p586
ssS'strategy'
p587
g11
(tRp588
g570
I100
sg571
I10
sS'advertisement_period'
p589
F5
sg565
S'IPFS'
p590
sg579
I30
sg572
I200
ssS'content_placement'
p591
g11
(tRp592
g565
S'UNIFORM'
p593
sg572
I200
ssS'cache_placement'
p594
g11
(tRp595
S'network_cache'
p596
F1
sS'cache_budget'
p597
I400
sg565
g566
ssS'desc'
p598
S'strategy: IPFS buffer size 30'
p599
sS'warmup_strategy'
p600
g11
(tRp601
g570
I100
sg571
I10
sg589
F5
sg565
g590
sg579
I30
sg572
I200
ssS'topology'
p602
g11
(tRp603
S'nrecv_per_edge'
p604
I10
sg565
S'TISCALI'
p605
ssg11
(tRp606
S'VIDEO_PLAYBACK'
p607
g11
(tRp608
S'ROUTER_HIT_RATIO'
p609
F0
sS'BUFFER_RATIO'
p610
F0.0029333333333333334
sS'CACHE_HIT_RATIO'
p611
F0.89982899999999999
sS'OVERHEAD'
p612
F7.518821
sS'BUFFERING_PER_CONTENT'
p613
g11
(tRp614
I19
I7
sI1
I2
sI2
I6
sI5
I12
sI70
I6
sI8
I3
sI83
I6
sI20
I2
ssstp615
a(g11
(tRp616
S'computation_placement'
p617
g11
(tRp618
S'service_budget'
p619
I1
sS'name'
p620
S'EDGE'
p621
sS'computation_budget'
p622
I1
ssS'workload'
p623
g11
(tRp624
S'n_contents'
p625
I100
sS'playback_rate'
p626
I10
sS'n_chunks'
p627
I200
sS'n_warmup'
p628
I0
sS'rate'
p629
F50
sS'n_measured'
p630
F15000
sS'alpha'
p631
F0.75
sS'n_services'
p632
I1
sS'seed'
p633
I0
sS'wndw_size'
p634
I10
sg620
S'STATIONARY'
p635
ssS'sched_policy'
p636
g11
(tRp637
g620
S'EDF'
p638
ssS'cache_policy'
p639
g11
(tRp640
g620
S'LRU'
p641
ssS'strategy'
p642
g11
(tRp643
g625
I100
sg626
I10
sS'advertisement_period'
p644
F5
sg627
I200
sS'load_balance_distance'
p645
I1
sg634
I30
sg620
S'NDN'
p646
ssS'content_placement'
p647
g11
(tRp648
g620
S'UNIFORM'
p649
sg627
I200
ssS'cache_placement'
p650
g11
(tRp651
S'network_cache'
p652
F1
sS'cache_budget'
p653
I400
sg620
g621
ssS'desc'
p654
S'strategy: NDN buffer size 30'
p655
sS'warmup_strategy'
p656
g11
(tRp657
g625
I100
sg626
I10
sg644
F5
sg620
g646
sg645
I1
sg634
I30
sg627
I200
ssS'topology'
p658
g11
(tRp659
S'nrecv_per_edge'
p660
I10
sg620
S'TISCALI'
p661
ssg11
(tRp662
S'VIDEO_PLAYBACK'
p663
g11
(tRp664
S'ROUTER_HIT_RATIO'
p665
F0
sS'BUFFER_RATIO'
p666
F0.93713333333333337
sS'CACHE_HIT_RATIO'
p667
F0.79118846135896792
sS'OVERHEAD'
p668
F2.8451673547343632
sS'BUFFERING_PER_CONTENT'
p669
g11
(tRp670
I1
I3207
sI2
I1835
sI3
I1271
sI4
I578
sI5
I590
sI6
I460
sI7
I448
sI8
I313
sI9
I234
sI10
I264
sI11
I166
sI12
I147
sI13
I96
sI14
I154
sI15
I205
sI16
I154
sI17
I129
sI18
I117
sI19
I134
sI20
I93
sI21
I87
sI22
I79
sI23
I125
sI24
I77
sI25
I99
sI26
I78
sI27
I94
sI28
I74
sI29
I71
sI30
I79
sI31
I38
sI32
I90
sI33
I81
sI34
I49
sI35
I68
sI36
I57
sI37
I78
sI38
I36
sI39
I51
sI40
I54
sI41
I68
sI42
I69
sI43
I63
sI44
I47
sI45
I31
sI46
I29
sI47
I42
sI48
I44
sI49
I46
sI50
I48
sI51
I24
sI52
I43
sI53
I24
sI54
I55
sI55
I30
sI56
I35
sI57
I52
sI58
I55
sI59
I36
sI60
I55
sI61
I47
sI62
I24
sI63
I22
sI64
I30
sI65
I35
sI66
I39
sI67
I21
sI68
I62
sI69
I27
sI70
I43
sI71
I19
sI72
I22
sI73
I30
sI74
I52
sI75
I19
sI76
I12
sI77
I33
sI78
I23
sI79
I16
sI80
I48
sI81
I57
sI82
I33
sI83
I26
sI84
I8
sI85
I17
sI86
I12
sI87
I52
sI88
I21
sI89
I30
sI90
I21
sI91
I27
sI92
I21
sI93
I12
sI94
I13
sI95
I28
sI96
I37
sI97
I15
sI98
I31
sI99
I16
ssstp671
a(g11
(tRp672
S'computation_placement'
p673
g11
(tRp674
S'service_budget'
p675
I1
sS'name'
p676
S'EDGE'
p677
sS'computation_budget'
p678
I1
ssS'workload'
p679
g11
(tRp680
S'n_contents'
p681
I100
sS'playback_rate'
p682
I10
sS'n_chunks'
p683
I200
sS'n_warmup'
p684
I0
sS'rate'
p685
F50
sS'n_measured'
p686
F15000
sS'alpha'
p687
F0.75
sS'n_services'
p688
I1
sS'seed'
p689
I0
sS'wndw_size'
p690
I10
sg676
S'STATIONARY'
p691
ssS'sched_policy'
p692
g11
(tRp693
g676
S'EDF'
p694
ssS'cache_policy'
p695
g11
(tRp696
g676
S'LRU'
p697
ssS'strategy'
p698
g11
(tRp699
g682
I10
sg690
I25
sg676
S'OPTIMAL'
p700
sg683
I200
ssS'content_placement'
p701
g11
(tRp702
g676
S'UNIFORM'
p703
sg683
I200
ssS'cache_placement'
p704
g11
(tRp705
S'network_cache'
p706
F1
sS'cache_budget'
p707
I400
sg676
g677
ssS'desc'
p708
S'strategy: OPTIMAL buffer size 25'
p709
sS'warmup_strategy'
p710
g11
(tRp711
g683
I200
sg682
I10
sg676
g700
sg690
I25
ssS'topology'
p712
g11
(tRp713
S'nrecv_per_edge'
p714
I10
sg676
S'TISCALI'
p715
ssg11
(tRp716
S'VIDEO_PLAYBACK'
p717
g11
(tRp718
S'ROUTER_HIT_RATIO'
p719
F0
sS'BUFFER_RATIO'
p720
F0
sS'CACHE_HIT_RATIO'
p721
F0.98829699999999998
sS'OVERHEAD'
p722
F3.6253653333333333
sS'BUFFERING_PER_CONTENT'
p723
g11
(tRp724
sstp725
a(g11
(tRp726
S'computation_placement'
p727
g11
(tRp728
S'service_budget'
p729
I1
sS'name'
p730
S'EDGE'
p731
sS'computation_budget'
p732
I1
ssS'workload'
p733
g11
(tRp734
S'n_contents'
p735
I100
sS'playback_rate'
p736
I10
sS'n_chunks'
p737
I200
sS'n_warmup'
p738
I0
sS'rate'
p739
F50
sS'n_measured'
p740
F15000
sS'alpha'
p741
F0.75
sS'n_services'
p742
I1
sS'seed'
p743
I0
sS'wndw_size'
p744
I10
sg730
S'STATIONARY'
p745
ssS'sched_policy'
p746
g11
(tRp747
g730
S'EDF'
p748
ssS'cache_policy'
p749
g11
(tRp750
g730
S'LRU'
p751
ssS'strategy'
p752
g11
(tRp753
g735
I100
sg736
I10
sS'advertisement_period'
p754
F5
sg737
I200
sS'load_balance_distance'
p755
I1
sg744
I10
sg730
S'NDN'
p756
ssS'content_placement'
p757
g11
(tRp758
g730
S'UNIFORM'
p759
sg737
I200
ssS'cache_placement'
p760
g11
(tRp761
S'network_cache'
p762
F1
sS'cache_budget'
p763
I400
sg730
g731
ssS'desc'
p764
S'strategy: NDN buffer size 10'
p765
sS'warmup_strategy'
p766
g11
(tRp767
g735
I100
sg736
I10
sg754
F5
sg730
g756
sg755
I1
sg744
I10
sg737
I200
ssS'topology'
p768
g11
(tRp769
S'nrecv_per_edge'
p770
I10
sg730
S'TISCALI'
p771
ssg11
(tRp772
S'VIDEO_PLAYBACK'
p773
g11
(tRp774
S'ROUTER_HIT_RATIO'
p775
F0
sS'BUFFER_RATIO'
p776
F4.8069333333333333
sS'CACHE_HIT_RATIO'
p777
F0.77879360362510552
sS'OVERHEAD'
p778
F2.846237910992635
sS'BUFFERING_PER_CONTENT'
p779
g11
(tRp780
I1
I20160
sI2
I9104
sI3
I6120
sI4
I3745
sI5
I2977
sI6
I1808
sI7
I2519
sI8
I1487
sI9
I1389
sI10
I838
sI11
I1248
sI12
I846
sI13
I738
sI14
I661
sI15
I573
sI16
I539
sI17
I496
sI18
I656
sI19
I419
sI20
I491
sI21
I506
sI22
I597
sI23
I407
sI24
I410
sI25
I371
sI26
I302
sI27
I326
sI28
I523
sI29
I195
sI30
I296
sI31
I343
sI32
I374
sI33
I240
sI34
I233
sI35
I114
sI36
I347
sI37
I293
sI38
I199
sI39
I246
sI40
I211
sI41
I135
sI42
I126
sI43
I227
sI44
I149
sI45
I142
sI46
I101
sI47
I266
sI48
I181
sI49
I159
sI50
I123
sI51
I119
sI52
I180
sI53
I233
sI54
I90
sI55
I229
sI56
I177
sI57
I181
sI58
I256
sI59
I197
sI60
I243
sI61
I128
sI62
I194
sI63
I135
sI64
I154
sI65
I178
sI66
I113
sI67
I91
sI68
I140
sI69
I200
sI70
I128
sI71
I266
sI72
I93
sI73
I126
sI74
I158
sI75
I192
sI76
I115
sI77
I192
sI78
I103
sI79
I72
sI80
I125
sI81
I122
sI82
I277
sI83
I111
sI84
I101
sI85
I72
sI86
I91
sI87
I172
sI88
I147
sI89
I189
sI90
I126
sI91
I134
sI92
I98
sI93
I136
sI94
I64
sI95
I83
sI96
I83
sI97
I125
sI98
I100
sI99
I109
ssstp781
a(g11
(tRp782
S'computation_placement'
p783
g11
(tRp784
S'service_budget'
p785
I1
sS'name'
p786
S'EDGE'
p787
sS'computation_budget'
p788
I1
ssS'workload'
p789
g11
(tRp790
S'n_contents'
p791
I100
sS'playback_rate'
p792
I10
sS'n_chunks'
p793
I200
sS'n_warmup'
p794
I0
sS'rate'
p795
F50
sS'n_measured'
p796
F15000
sS'alpha'
p797
F0.75
sS'n_services'
p798
I1
sS'seed'
p799
I0
sS'wndw_size'
p800
I10
sg786
S'STATIONARY'
p801
ssS'sched_policy'
p802
g11
(tRp803
g786
S'EDF'
p804
ssS'cache_policy'
p805
g11
(tRp806
g786
S'LRU'
p807
ssS'strategy'
p808
g11
(tRp809
g791
I100
sg792
I10
sS'advertisement_period'
p810
F5
sg786
S'IPFS'
p811
sg800
I25
sg793
I200
ssS'content_placement'
p812
g11
(tRp813
g786
S'UNIFORM'
p814
sg793
I200
ssS'cache_placement'
p815
g11
(tRp816
S'network_cache'
p817
F1
sS'cache_budget'
p818
I400
sg786
g787
ssS'desc'
p819
S'strategy: IPFS buffer size 25'
p820
sS'warmup_strategy'
p821
g11
(tRp822
g791
I100
sg792
I10
sg810
F5
sg786
g811
sg800
I25
sg793
I200
ssS'topology'
p823
g11
(tRp824
S'nrecv_per_edge'
p825
I10
sg786
S'TISCALI'
p826
ssg11
(tRp827
S'VIDEO_PLAYBACK'
p828
g11
(tRp829
S'ROUTER_HIT_RATIO'
p830
F0
sS'BUFFER_RATIO'
p831
F0.0097333333333333334
sS'CACHE_HIT_RATIO'
p832
F0.9015306666666667
sS'OVERHEAD'
p833
F7.5219766666666663
sS'BUFFERING_PER_CONTENT'
p834
g11
(tRp835
I1
I38
sI34
I1
sI3
I15
sI97
I6
sI6
I18
sI71
I8
sI40
I7
sI73
I5
sI10
I1
sI39
I7
sI77
I2
sI14
I2
sI13
I11
sI35
I2
sI52
I7
sI45
I7
sI90
I1
sI59
I2
sI60
I4
sI63
I2
ssstp836
a(g11
(tRp837
S'computation_placement'
p838
g11
(tRp839
S'service_budget'
p840
I1
sS'name'
p841
S'EDGE'
p842
sS'computation_budget'
p843
I1
ssS'workload'
p844
g11
(tRp845
S'n_contents'
p846
I100
sS'playback_rate'
p847
I10
sS'n_chunks'
p848
I200
sS'n_warmup'
p849
I0
sS'rate'
p850
F50
sS'n_measured'
p851
F15000
sS'alpha'
p852
F0.75
sS'n_services'
p853
I1
sS'seed'
p854
I0
sS'wndw_size'
p855
I10
sg841
S'STATIONARY'
p856
ssS'sched_policy'
p857
g11
(tRp858
g841
S'EDF'
p859
ssS'cache_policy'
p860
g11
(tRp861
g841
S'LRU'
p862
ssS'strategy'
p863
g11
(tRp864
g846
I100
sg847
I10
sS'advertisement_period'
p865
F5
sg841
S'NDN_MEASUREMENT'
p866
sg855
I25
sg848
I200
ssS'content_placement'
p867
g11
(tRp868
g841
S'UNIFORM'
p869
sg848
I200
ssS'cache_placement'
p870
g11
(tRp871
S'network_cache'
p872
F1
sS'cache_budget'
p873
I400
sg841
g842
ssS'desc'
p874
S'strategy: NDN_MEASUREMENT buffer size 25'
p875
sS'warmup_strategy'
p876
g11
(tRp877
g846
I100
sg847
I10
sg865
F5
sg841
g866
sg855
I25
sg848
I200
ssS'topology'
p878
g11
(tRp879
S'nrecv_per_edge'
p880
I10
sg841
S'TISCALI'
p881
ssg11
(tRp882
S'VIDEO_PLAYBACK'
p883
g11
(tRp884
S'ROUTER_HIT_RATIO'
p885
F0
sS'BUFFER_RATIO'
p886
F0.0166
sS'CACHE_HIT_RATIO'
p887
F0.8519403333333333
sS'OVERHEAD'
p888
F6.9567836666666665
sS'BUFFERING_PER_CONTENT'
p889
g11
(tRp890
I1
I36
sI2
I20
sI3
I7
sI4
I12
sI6
I15
sI7
I54
sI8
I3
sI9
I8
sI10
I3
sI11
I10
sI17
I9
sI18
I14
sI19
I4
sI24
I13
sI26
I1
sI34
I1
sI40
I6
sI41
I6
sI58
I8
sI74
I8
sI81
I2
sI83
I4
sI84
I1
sI86
I4
ssstp891
a(g11
(tRp892
S'computation_placement'
p893
g11
(tRp894
S'service_budget'
p895
I1
sS'name'
p896
S'EDGE'
p897
sS'computation_budget'
p898
I1
ssS'workload'
p899
g11
(tRp900
S'n_contents'
p901
I100
sS'playback_rate'
p902
I10
sS'n_chunks'
p903
I200
sS'n_warmup'
p904
I0
sS'rate'
p905
F50
sS'n_measured'
p906
F15000
sS'alpha'
p907
F0.75
sS'n_services'
p908
I1
sS'seed'
p909
I0
sS'wndw_size'
p910
I10
sg896
S'STATIONARY'
p911
ssS'sched_policy'
p912
g11
(tRp913
g896
S'EDF'
p914
ssS'cache_policy'
p915
g11
(tRp916
g896
S'LRU'
p917
ssS'strategy'
p918
g11
(tRp919
g901
I100
sg902
I10
sS'advertisement_period'
p920
F5
sg896
S'NDN_MEASUREMENT'
p921
sg910
I20
sg903
I200
ssS'content_placement'
p922
g11
(tRp923
g896
S'UNIFORM'
p924
sg903
I200
ssS'cache_placement'
p925
g11
(tRp926
S'network_cache'
p927
F1
sS'cache_budget'
p928
I400
sg896
g897
ssS'desc'
p929
S'strategy: NDN_MEASUREMENT buffer size 20'
p930
sS'warmup_strategy'
p931
g11
(tRp932
g901
I100
sg902
I10
sg920
F5
sg896
g921
sg910
I20
sg903
I200
ssS'topology'
p933
g11
(tRp934
S'nrecv_per_edge'
p935
I10
sg896
S'TISCALI'
p936
ssg11
(tRp937
S'VIDEO_PLAYBACK'
p938
g11
(tRp939
S'ROUTER_HIT_RATIO'
p940
F0
sS'BUFFER_RATIO'
p941
F0.036466666666666668
sS'CACHE_HIT_RATIO'
p942
F0.85128466666666669
sS'OVERHEAD'
p943
F6.9816426666666667
sS'BUFFERING_PER_CONTENT'
p944
g11
(tRp945
I1
I104
sI2
I87
sI3
I73
sI4
I32
sI5
I53
sI6
I32
sI7
I1
sI8
I13
sI10
I9
sI11
I4
sI13
I10
sI15
I8
sI17
I14
sI18
I17
sI20
I1
sI24
I5
sI26
I1
sI27
I12
sI36
I7
sI37
I12
sI49
I8
sI51
I5
sI55
I4
sI57
I4
sI58
I5
sI65
I1
sI66
I5
sI72
I3
sI78
I6
sI82
I5
sI83
I3
sI91
I3
ssstp946
a(g11
(tRp947
S'computation_placement'
p948
g11
(tRp949
S'service_budget'
p950
I1
sS'name'
p951
S'EDGE'
p952
sS'computation_budget'
p953
I1
ssS'workload'
p954
g11
(tRp955
S'n_contents'
p956
I100
sS'playback_rate'
p957
I10
sS'n_chunks'
p958
I200
sS'n_warmup'
p959
I0
sS'rate'
p960
F50
sS'n_measured'
p961
F15000
sS'alpha'
p962
F0.75
sS'n_services'
p963
I1
sS'seed'
p964
I0
sS'wndw_size'
p965
I10
sg951
S'STATIONARY'
p966
ssS'sched_policy'
p967
g11
(tRp968
g951
S'EDF'
p969
ssS'cache_policy'
p970
g11
(tRp971
g951
S'LRU'
p972
ssS'strategy'
p973
g11
(tRp974
g956
I100
sg957
I10
sS'advertisement_period'
p975
F5
sg951
S'NDN_MEASUREMENT'
p976
sg965
I10
sg958
I200
ssS'content_placement'
p977
g11
(tRp978
g951
S'UNIFORM'
p979
sg958
I200
ssS'cache_placement'
p980
g11
(tRp981
S'network_cache'
p982
F1
sS'cache_budget'
p983
I400
sg951
g952
ssS'desc'
p984
S'strategy: NDN_MEASUREMENT buffer size 10'
p985
sS'warmup_strategy'
p986
g11
(tRp987
g956
I100
sg957
I10
sg975
F5
sg951
g976
sg965
I10
sg958
I200
ssS'topology'
p988
g11
(tRp989
S'nrecv_per_edge'
p990
I10
sg951
S'TISCALI'
p991
ssg11
(tRp992
S'VIDEO_PLAYBACK'
p993
g11
(tRp994
S'ROUTER_HIT_RATIO'
p995
F0
sS'BUFFER_RATIO'
p996
F0.13633333333333333
sS'CACHE_HIT_RATIO'
p997
F0.84451699999999996
sS'OVERHEAD'
p998
F6.984623
sS'BUFFERING_PER_CONTENT'
p999
g11
(tRp1000
I1
I342
sI2
I228
sI3
I172
sI4
I119
sI5
I76
sI6
I42
sI7
I24
sI8
I41
sI9
I23
sI10
I38
sI11
I34
sI12
I36
sI13
I9
sI14
I51
sI15
I38
sI16
I15
sI17
I18
sI18
I30
sI19
I12
sI20
I26
sI21
I13
sI22
I1
sI23
I8
sI24
I35
sI25
I8
sI26
I11
sI27
I25
sI28
I27
sI29
I28
sI30
I16
sI31
I5
sI32
I5
sI33
I10
sI34
I5
sI35
I14
sI36
I16
sI37
I8
sI38
I6
sI39
I4
sI40
I2
sI41
I10
sI42
I7
sI43
I20
sI44
I7
sI45
I11
sI46
I7
sI47
I6
sI48
I6
sI49
I1
sI51
I10
sI52
I4
sI53
I4
sI55
I4
sI56
I2
sI57
I18
sI58
I5
sI59
I3
sI60
I27
sI62
I25
sI63
I12
sI64
I16
sI65
I4
sI66
I1
sI67
I12
sI68
I10
sI69
I2
sI70
I1
sI71
I12
sI72
I19
sI73
I20
sI74
I3
sI75
I12
sI76
I3
sI78
I8
sI79
I22
sI80
I4
sI81
I1
sI82
I14
sI83
I2
sI84
I6
sI85
I2
sI87
I3
sI89
I4
sI90
I9
sI92
I19
sI94
I3
sI95
I3
sI96
I2
sI98
I11
sI99
I7
ssstp1001
a(g11
(tRp1002
S'computation_placement'
p1003
g11
(tRp1004
S'service_budget'
p1005
I1
sS'name'
p1006
S'EDGE'
p1007
sS'computation_budget'
p1008
I1
ssS'workload'
p1009
g11
(tRp1010
S'n_contents'
p1011
I100
sS'playback_rate'
p1012
I10
sS'n_chunks'
p1013
I200
sS'n_warmup'
p1014
I0
sS'rate'
p1015
F50
sS'n_measured'
p1016
F15000
sS'alpha'
p1017
F0.75
sS'n_services'
p1018
I1
sS'seed'
p1019
I0
sS'wndw_size'
p1020
I10
sg1006
S'STATIONARY'
p1021
ssS'sched_policy'
p1022
g11
(tRp1023
g1006
S'EDF'
p1024
ssS'cache_policy'
p1025
g11
(tRp1026
g1006
S'LRU'
p1027
ssS'strategy'
p1028
g11
(tRp1029
g1011
I100
sg1012
I10
sS'advertisement_period'
p1030
F5
sg1006
S'NDN_MEASUREMENT'
p1031
sg1020
I30
sg1013
I200
ssS'content_placement'
p1032
g11
(tRp1033
g1006
S'UNIFORM'
p1034
sg1013
I200
ssS'cache_placement'
p1035
g11
(tRp1036
S'network_cache'
p1037
F1
sS'cache_budget'
p1038
I400
sg1006
g1007
ssS'desc'
p1039
S'strategy: NDN_MEASUREMENT buffer size 30'
p1040
sS'warmup_strategy'
p1041
g11
(tRp1042
g1011
I100
sg1012
I10
sg1030
F5
sg1006
g1031
sg1020
I30
sg1013
I200
ssS'topology'
p1043
g11
(tRp1044
S'nrecv_per_edge'
p1045
I10
sg1006
S'TISCALI'
p1046
ssg11
(tRp1047
S'VIDEO_PLAYBACK'
p1048
g11
(tRp1049
S'ROUTER_HIT_RATIO'
p1050
F0
sS'BUFFER_RATIO'
p1051
F0.0078666666666666659
sS'CACHE_HIT_RATIO'
p1052
F0.8546583333333333
sS'OVERHEAD'
p1053
F6.9222996666666665
sS'BUFFERING_PER_CONTENT'
p1054
g11
(tRp1055
I96
I1
sI1
I14
sI2
I31
sI3
I18
sI4
I10
sI6
I12
sI10
I3
sI12
I1
sI47
I10
sI16
I7
sI52
I4
sI57
I7
ssstp1056
a(g11
(tRp1057
S'computation_placement'
p1058
g11
(tRp1059
S'service_budget'
p1060
I1
sS'name'
p1061
S'EDGE'
p1062
sS'computation_budget'
p1063
I1
ssS'workload'
p1064
g11
(tRp1065
S'n_contents'
p1066
I100
sS'playback_rate'
p1067
I10
sS'n_chunks'
p1068
I200
sS'n_warmup'
p1069
I0
sS'rate'
p1070
F50
sS'n_measured'
p1071
F15000
sS'alpha'
p1072
F0.75
sS'n_services'
p1073
I1
sS'seed'
p1074
I0
sS'wndw_size'
p1075
I10
sg1061
S'STATIONARY'
p1076
ssS'sched_policy'
p1077
g11
(tRp1078
g1061
S'EDF'
p1079
ssS'cache_policy'
p1080
g11
(tRp1081
g1061
S'LRU'
p1082
ssS'strategy'
p1083
g11
(tRp1084
g1066
I100
sg1067
I10
sS'advertisement_period'
p1085
F5
sg1061
S'NDN_MEASUREMENT'
p1086
sg1075
I15
sg1068
I200
ssS'content_placement'
p1087
g11
(tRp1088
g1061
S'UNIFORM'
p1089
sg1068
I200
ssS'cache_placement'
p1090
g11
(tRp1091
S'network_cache'
p1092
F1
sS'cache_budget'
p1093
I400
sg1061
g1062
ssS'desc'
p1094
S'strategy: NDN_MEASUREMENT buffer size 15'
p1095
sS'warmup_strategy'
p1096
g11
(tRp1097
g1066
I100
sg1067
I10
sg1085
F5
sg1061
g1086
sg1075
I15
sg1068
I200
ssS'topology'
p1098
g11
(tRp1099
S'nrecv_per_edge'
p1100
I10
sg1061
S'TISCALI'
p1101
ssg11
(tRp1102
S'VIDEO_PLAYBACK'
p1103
g11
(tRp1104
S'ROUTER_HIT_RATIO'
p1105
F0
sS'BUFFER_RATIO'
p1106
F0.061400000000000003
sS'CACHE_HIT_RATIO'
p1107
F0.85006933333333334
sS'OVERHEAD'
p1108
F7.0212709999999996
sS'BUFFERING_PER_CONTENT'
p1109
g11
(tRp1110
I1
I146
sI2
I111
sI3
I88
sI4
I11
sI5
I11
sI6
I25
sI7
I17
sI8
I11
sI9
I27
sI10
I5
sI11
I32
sI12
I46
sI13
I7
sI14
I18
sI15
I9
sI16
I33
sI17
I2
sI18
I3
sI19
I8
sI20
I5
sI21
I4
sI23
I19
sI26
I15
sI28
I9
sI29
I7
sI30
I2
sI31
I4
sI32
I16
sI33
I4
sI34
I6
sI35
I4
sI36
I19
sI37
I5
sI40
I1
sI41
I6
sI42
I2
sI43
I12
sI44
I8
sI45
I4
sI46
I1
sI49
I8
sI50
I12
sI54
I1
sI59
I2
sI61
I6
sI64
I2
sI65
I1
sI66
I4
sI68
I17
sI69
I4
sI71
I2
sI72
I3
sI74
I1
sI75
I5
sI76
I7
sI77
I3
sI78
I4
sI80
I4
sI82
I5
sI83
I17
sI85
I5
sI86
I5
sI87
I3
sI88
I3
sI90
I4
sI91
I5
sI92
I7
sI93
I4
sI97
I3
sI98
I1
sI99
I10
ssstp1111
atRp1112
sb.