ccopy_reg
_reconstructor
p1
(cicarus.results.readwrite
ResultSet
p2
c__builtin__
object
p3
NtRp4
(dp5
S'attr'
p6
(dp7
sS'_results'
p8
ccollections
deque
p9
((lp10
(cicarus.util
Tree
p11
(tRp12
S'computation_placement'
p13
g11
(tRp14
S'service_budget'
p15
I1
sS'name'
p16
S'EDGE'
p17
sS'computation_budget'
p18
I1
ssS'workload'
p19
g11
(tRp20
S'n_contents'
p21
I100
sS'playback_rate'
p22
I10
sS'n_chunks'
p23
I1000
sS'n_warmup'
p24
I0
sS'rate'
p25
F10
sS'n_measured'
p26
F3000
sS'alpha'
p27
F0.75
sS'n_services'
p28
I1
sS'seed'
p29
I0
sS'wndw_size'
p30
I10
sg16
S'STATIONARY'
p31
ssS'sched_policy'
p32
g11
(tRp33
g16
S'EDF'
p34
ssS'cache_policy'
p35
g11
(tRp36
g16
S'LRU'
p37
ssS'strategy'
p38
g11
(tRp39
g22
I10
sg30
I10
sg16
S'OPTIMAL'
p40
sg23
I1000
ssS'content_placement'
p41
g11
(tRp42
g16
S'UNIFORM'
p43
sg23
I1000
ssS'cache_placement'
p44
g11
(tRp45
S'network_cache'
p46
F1
sS'cache_budget'
p47
I2000
sg16
g17
ssS'desc'
p48
S'strategy: OPTIMAL alpha 0.5'
p49
sS'warmup_strategy'
p50
g11
(tRp51
g23
I1000
sg22
I10
sg16
g40
sg30
I10
ssS'topology'
p52
g11
(tRp53
S'nrecv_per_edge'
p54
I10
sg16
S'TISCALI'
p55
ssg11
(tRp56
S'VIDEO_PLAYBACK'
p57
g11
(tRp58
S'ROUTER_HIT_RATIO'
p59
F0
sS'BUFFER_RATIO'
p60
F0.0016666666666666668
sS'CACHE_HIT_RATIO'
p61
F0.94881400000000005
sS'OVERHEAD'
p62
F3.6770426666666665
sS'BUFFERING_PER_CONTENT'
p63
g11
(tRp64
I16
I1
sI4
I1
sI43
I1
sI12
I1
sI25
I1
ssstp65
a(g11
(tRp66
S'computation_placement'
p67
g11
(tRp68
S'service_budget'
p69
I1
sS'name'
p70
S'EDGE'
p71
sS'computation_budget'
p72
I1
ssS'workload'
p73
g11
(tRp74
S'n_contents'
p75
I100
sS'playback_rate'
p76
I10
sS'n_chunks'
p77
I1000
sS'n_warmup'
p78
I0
sS'rate'
p79
F10
sS'n_measured'
p80
F3000
sS'alpha'
p81
F0.75
sS'n_services'
p82
I1
sS'seed'
p83
I0
sS'wndw_size'
p84
I10
sg70
S'STATIONARY'
p85
ssS'sched_policy'
p86
g11
(tRp87
g70
S'EDF'
p88
ssS'cache_policy'
p89
g11
(tRp90
g70
S'LRU'
p91
ssS'strategy'
p92
g11
(tRp93
g76
I10
sg84
I10
sg70
S'OPTIMAL'
p94
sg77
I1000
ssS'content_placement'
p95
g11
(tRp96
g70
S'UNIFORM'
p97
sg77
I1000
ssS'cache_placement'
p98
g11
(tRp99
S'network_cache'
p100
F1
sS'cache_budget'
p101
I2000
sg70
g71
ssS'desc'
p102
S'strategy: OPTIMAL alpha 0.75'
p103
sS'warmup_strategy'
p104
g11
(tRp105
g77
I1000
sg76
I10
sg70
g94
sg84
I10
ssS'topology'
p106
g11
(tRp107
S'nrecv_per_edge'
p108
I10
sg70
S'TISCALI'
p109
ssg11
(tRp110
S'VIDEO_PLAYBACK'
p111
g11
(tRp112
S'ROUTER_HIT_RATIO'
p113
F0
sS'BUFFER_RATIO'
p114
F0.0016666666666666668
sS'CACHE_HIT_RATIO'
p115
F0.94881400000000005
sS'OVERHEAD'
p116
F3.6770426666666665
sS'BUFFERING_PER_CONTENT'
p117
g11
(tRp118
I16
I1
sI4
I1
sI43
I1
sI12
I1
sI25
I1
ssstp119
a(g11
(tRp120
S'computation_placement'
p121
g11
(tRp122
S'service_budget'
p123
I1
sS'name'
p124
S'EDGE'
p125
sS'computation_budget'
p126
I1
ssS'workload'
p127
g11
(tRp128
S'n_contents'
p129
I100
sS'playback_rate'
p130
I10
sS'n_chunks'
p131
I1000
sS'n_warmup'
p132
I0
sS'rate'
p133
F10
sS'n_measured'
p134
F3000
sS'alpha'
p135
F0.75
sS'n_services'
p136
I1
sS'seed'
p137
I0
sS'wndw_size'
p138
I10
sg124
S'STATIONARY'
p139
ssS'sched_policy'
p140
g11
(tRp141
g124
S'EDF'
p142
ssS'cache_policy'
p143
g11
(tRp144
g124
S'LRU'
p145
ssS'strategy'
p146
g11
(tRp147
g130
I10
sg138
I10
sg124
S'OPTIMAL'
p148
sg131
I1000
ssS'content_placement'
p149
g11
(tRp150
g124
S'UNIFORM'
p151
sg131
I1000
ssS'cache_placement'
p152
g11
(tRp153
S'network_cache'
p154
F1
sS'cache_budget'
p155
I2000
sg124
g125
ssS'desc'
p156
S'strategy: OPTIMAL alpha 0.25'
p157
sS'warmup_strategy'
p158
g11
(tRp159
g131
I1000
sg130
I10
sg124
g148
sg138
I10
ssS'topology'
p160
g11
(tRp161
S'nrecv_per_edge'
p162
I10
sg124
S'TISCALI'
p163
ssg11
(tRp164
S'VIDEO_PLAYBACK'
p165
g11
(tRp166
S'ROUTER_HIT_RATIO'
p167
F0
sS'BUFFER_RATIO'
p168
F0.0016666666666666668
sS'CACHE_HIT_RATIO'
p169
F0.94881400000000005
sS'OVERHEAD'
p170
F3.6770426666666665
sS'BUFFERING_PER_CONTENT'
p171
g11
(tRp172
I16
I1
sI4
I1
sI43
I1
sI12
I1
sI25
I1
ssstp173
a(g11
(tRp174
S'computation_placement'
p175
g11
(tRp176
S'service_budget'
p177
I1
sS'name'
p178
S'EDGE'
p179
sS'computation_budget'
p180
I1
ssS'workload'
p181
g11
(tRp182
S'n_contents'
p183
I100
sS'playback_rate'
p184
I10
sS'n_chunks'
p185
I1000
sS'n_warmup'
p186
I0
sS'rate'
p187
F10
sS'n_measured'
p188
F3000
sS'alpha'
p189
F0.75
sS'n_services'
p190
I1
sS'seed'
p191
I0
sS'wndw_size'
p192
I10
sg178
S'STATIONARY'
p193
ssS'sched_policy'
p194
g11
(tRp195
g178
S'EDF'
p196
ssS'cache_policy'
p197
g11
(tRp198
g178
S'LRU'
p199
ssS'strategy'
p200
g11
(tRp201
g184
I10
sg192
I10
sg178
S'OPTIMAL'
p202
sg185
I1000
ssS'content_placement'
p203
g11
(tRp204
g178
S'UNIFORM'
p205
sg185
I1000
ssS'cache_placement'
p206
g11
(tRp207
S'network_cache'
p208
F1
sS'cache_budget'
p209
I2000
sg178
g179
ssS'desc'
p210
S'strategy: OPTIMAL alpha 1.0'
p211
sS'warmup_strategy'
p212
g11
(tRp213
g185
I1000
sg184
I10
sg178
g202
sg192
I10
ssS'topology'
p214
g11
(tRp215
S'nrecv_per_edge'
p216
I10
sg178
S'TISCALI'
p217
ssg11
(tRp218
S'VIDEO_PLAYBACK'
p219
g11
(tRp220
S'ROUTER_HIT_RATIO'
p221
F0
sS'BUFFER_RATIO'
p222
F0.0016666666666666668
sS'CACHE_HIT_RATIO'
p223
F0.94881400000000005
sS'OVERHEAD'
p224
F3.6770426666666665
sS'BUFFERING_PER_CONTENT'
p225
g11
(tRp226
I16
I1
sI4
I1
sI43
I1
sI12
I1
sI25
I1
ssstp227
a(g11
(tRp228
S'computation_placement'
p229
g11
(tRp230
S'service_budget'
p231
I1
sS'name'
p232
S'EDGE'
p233
sS'computation_budget'
p234
I1
ssS'workload'
p235
g11
(tRp236
S'n_contents'
p237
I100
sS'playback_rate'
p238
I10
sS'n_chunks'
p239
I1000
sS'n_warmup'
p240
I0
sS'rate'
p241
F10
sS'n_measured'
p242
F3000
sS'alpha'
p243
F0.75
sS'n_services'
p244
I1
sS'seed'
p245
I0
sS'wndw_size'
p246
I10
sg232
S'STATIONARY'
p247
ssS'sched_policy'
p248
g11
(tRp249
g232
S'EDF'
p250
ssS'cache_policy'
p251
g11
(tRp252
g232
S'LRU'
p253
ssS'strategy'
p254
g11
(tRp255
g238
I10
sg246
I10
sg232
S'OPTIMAL'
p256
sg239
I1000
ssS'content_placement'
p257
g11
(tRp258
g232
S'UNIFORM'
p259
sg239
I1000
ssS'cache_placement'
p260
g11
(tRp261
S'network_cache'
p262
F1
sS'cache_budget'
p263
I2000
sg232
g233
ssS'desc'
p264
S'strategy: OPTIMAL alpha 0.1'
p265
sS'warmup_strategy'
p266
g11
(tRp267
g239
I1000
sg238
I10
sg232
g256
sg246
I10
ssS'topology'
p268
g11
(tRp269
S'nrecv_per_edge'
p270
I10
sg232
S'TISCALI'
p271
ssg11
(tRp272
S'VIDEO_PLAYBACK'
p273
g11
(tRp274
S'ROUTER_HIT_RATIO'
p275
F0
sS'BUFFER_RATIO'
p276
F0.0016666666666666668
sS'CACHE_HIT_RATIO'
p277
F0.94881400000000005
sS'OVERHEAD'
p278
F3.6770426666666665
sS'BUFFERING_PER_CONTENT'
p279
g11
(tRp280
I16
I1
sI4
I1
sI43
I1
sI12
I1
sI25
I1
ssstp281
a(g11
(tRp282
S'computation_placement'
p283
g11
(tRp284
S'service_budget'
p285
I1
sS'name'
p286
S'EDGE'
p287
sS'computation_budget'
p288
I1
ssS'workload'
p289
g11
(tRp290
S'n_contents'
p291
I100
sS'playback_rate'
p292
I10
sS'n_chunks'
p293
I1000
sS'n_warmup'
p294
I0
sS'rate'
p295
F10
sS'n_measured'
p296
F3000
sS'alpha'
p297
F0.75
sS'n_services'
p298
I1
sS'seed'
p299
I0
sS'wndw_size'
p300
I10
sg286
S'STATIONARY'
p301
ssS'sched_policy'
p302
g11
(tRp303
g286
S'EDF'
p304
ssS'cache_policy'
p305
g11
(tRp306
g286
S'LRU'
p307
ssS'strategy'
p308
g11
(tRp309
g291
I100
sg292
I10
sS'advertisement_period'
p310
F5
sg286
S'NDN_MEASUREMENT'
p311
sg300
I10
sg293
I1000
ssS'content_placement'
p312
g11
(tRp313
g286
S'UNIFORM'
p314
sg293
I1000
ssS'cache_placement'
p315
g11
(tRp316
S'network_cache'
p317
F1
sS'cache_budget'
p318
I2000
sg286
g287
ssS'desc'
p319
S'strategy: NDN_MEASUREMENT alpha 0.1'
p320
sS'warmup_strategy'
p321
g11
(tRp322
g291
I100
sg292
I10
sg310
F5
sg286
g311
sg300
I10
sg293
I1000
ssS'topology'
p323
g11
(tRp324
S'nrecv_per_edge'
p325
I10
sg286
S'TISCALI'
p326
ssg11
(tRp327
S'VIDEO_PLAYBACK'
p328
g11
(tRp329
S'ROUTER_HIT_RATIO'
p330
F0
sS'BUFFER_RATIO'
p331
F1.9966666666666666
sS'CACHE_HIT_RATIO'
p332
F0.80814533333333338
sS'OVERHEAD'
p333
F6.8349789999999997
sS'BUFFERING_PER_CONTENT'
p334
g11
(tRp335
I1
I1422
sI2
I732
sI3
I313
sI4
I368
sI5
I474
sI6
I139
sI7
I179
sI8
I108
sI9
I38
sI10
I72
sI11
I130
sI12
I91
sI13
I118
sI14
I70
sI15
I160
sI16
I90
sI17
I26
sI18
I15
sI19
I24
sI20
I78
sI21
I110
sI22
I26
sI23
I14
sI24
I34
sI25
I27
sI26
I27
sI27
I61
sI28
I46
sI29
I29
sI30
I7
sI31
I73
sI32
I68
sI33
I32
sI34
I26
sI35
I17
sI36
I29
sI37
I24
sI38
I24
sI39
I18
sI40
I23
sI41
I12
sI42
I4
sI43
I43
sI44
I52
sI45
I18
sI46
I30
sI48
I1
sI49
I2
sI50
I3
sI51
I44
sI52
I20
sI53
I20
sI54
I10
sI55
I19
sI56
I16
sI57
I4
sI58
I7
sI59
I12
sI60
I4
sI61
I8
sI62
I14
sI63
I20
sI64
I9
sI65
I7
sI66
I8
sI67
I8
sI68
I36
sI69
I4
sI70
I14
sI73
I6
sI74
I2
sI75
I20
sI76
I8
sI77
I11
sI78
I1
sI79
I4
sI80
I22
sI81
I4
sI82
I10
sI83
I5
sI84
I3
sI85
I1
sI87
I11
sI88
I4
sI89
I28
sI90
I2
sI91
I21
sI93
I3
sI94
I4
sI95
I2
sI96
I2
sI99
I5
ssstp336
a(g11
(tRp337
S'computation_placement'
p338
g11
(tRp339
S'service_budget'
p340
I1
sS'name'
p341
S'EDGE'
p342
sS'computation_budget'
p343
I1
ssS'workload'
p344
g11
(tRp345
S'n_contents'
p346
I100
sS'playback_rate'
p347
I10
sS'n_chunks'
p348
I1000
sS'n_warmup'
p349
I0
sS'rate'
p350
F10
sS'n_measured'
p351
F3000
sS'alpha'
p352
F0.75
sS'n_services'
p353
I1
sS'seed'
p354
I0
sS'wndw_size'
p355
I10
sg341
S'STATIONARY'
p356
ssS'sched_policy'
p357
g11
(tRp358
g341
S'EDF'
p359
ssS'cache_policy'
p360
g11
(tRp361
g341
S'LRU'
p362
ssS'strategy'
p363
g11
(tRp364
g346
I100
sg347
I10
sS'advertisement_period'
p365
F5
sg341
S'NDN_MEASUREMENT'
p366
sg355
I10
sg348
I1000
ssS'content_placement'
p367
g11
(tRp368
g341
S'UNIFORM'
p369
sg348
I1000
ssS'cache_placement'
p370
g11
(tRp371
S'network_cache'
p372
F1
sS'cache_budget'
p373
I2000
sg341
g342
ssS'desc'
p374
S'strategy: NDN_MEASUREMENT alpha 0.25'
p375
sS'warmup_strategy'
p376
g11
(tRp377
g346
I100
sg347
I10
sg365
F5
sg341
g366
sg355
I10
sg348
I1000
ssS'topology'
p378
g11
(tRp379
S'nrecv_per_edge'
p380
I10
sg341
S'TISCALI'
p381
ssg11
(tRp382
S'VIDEO_PLAYBACK'
p383
g11
(tRp384
S'ROUTER_HIT_RATIO'
p385
F0
sS'BUFFER_RATIO'
p386
F1.9966666666666666
sS'CACHE_HIT_RATIO'
p387
F0.80814533333333338
sS'OVERHEAD'
p388
F6.8349789999999997
sS'BUFFERING_PER_CONTENT'
p389
g11
(tRp390
I1
I1422
sI2
I732
sI3
I313
sI4
I368
sI5
I474
sI6
I139
sI7
I179
sI8
I108
sI9
I38
sI10
I72
sI11
I130
sI12
I91
sI13
I118
sI14
I70
sI15
I160
sI16
I90
sI17
I26
sI18
I15
sI19
I24
sI20
I78
sI21
I110
sI22
I26
sI23
I14
sI24
I34
sI25
I27
sI26
I27
sI27
I61
sI28
I46
sI29
I29
sI30
I7
sI31
I73
sI32
I68
sI33
I32
sI34
I26
sI35
I17
sI36
I29
sI37
I24
sI38
I24
sI39
I18
sI40
I23
sI41
I12
sI42
I4
sI43
I43
sI44
I52
sI45
I18
sI46
I30
sI48
I1
sI49
I2
sI50
I3
sI51
I44
sI52
I20
sI53
I20
sI54
I10
sI55
I19
sI56
I16
sI57
I4
sI58
I7
sI59
I12
sI60
I4
sI61
I8
sI62
I14
sI63
I20
sI64
I9
sI65
I7
sI66
I8
sI67
I8
sI68
I36
sI69
I4
sI70
I14
sI73
I6
sI74
I2
sI75
I20
sI76
I8
sI77
I11
sI78
I1
sI79
I4
sI80
I22
sI81
I4
sI82
I10
sI83
I5
sI84
I3
sI85
I1
sI87
I11
sI88
I4
sI89
I28
sI90
I2
sI91
I21
sI93
I3
sI94
I4
sI95
I2
sI96
I2
sI99
I5
ssstp391
a(g11
(tRp392
S'computation_placement'
p393
g11
(tRp394
S'service_budget'
p395
I1
sS'name'
p396
S'EDGE'
p397
sS'computation_budget'
p398
I1
ssS'workload'
p399
g11
(tRp400
S'n_contents'
p401
I100
sS'playback_rate'
p402
I10
sS'n_chunks'
p403
I1000
sS'n_warmup'
p404
I0
sS'rate'
p405
F10
sS'n_measured'
p406
F3000
sS'alpha'
p407
F0.75
sS'n_services'
p408
I1
sS'seed'
p409
I0
sS'wndw_size'
p410
I10
sg396
S'STATIONARY'
p411
ssS'sched_policy'
p412
g11
(tRp413
g396
S'EDF'
p414
ssS'cache_policy'
p415
g11
(tRp416
g396
S'LRU'
p417
ssS'strategy'
p418
g11
(tRp419
g401
I100
sg402
I10
sS'advertisement_period'
p420
F5
sg396
S'IPFS'
p421
sg410
I10
sg403
I1000
ssS'content_placement'
p422
g11
(tRp423
g396
S'UNIFORM'
p424
sg403
I1000
ssS'cache_placement'
p425
g11
(tRp426
S'network_cache'
p427
F1
sS'cache_budget'
p428
I2000
sg396
g397
ssS'desc'
p429
S'strategy: IPFS alpha 0.25'
p430
sS'warmup_strategy'
p431
g11
(tRp432
g401
I100
sg402
I10
sg420
F5
sg396
g421
sg410
I10
sg403
I1000
ssS'topology'
p433
g11
(tRp434
S'nrecv_per_edge'
p435
I10
sg396
S'TISCALI'
p436
ssg11
(tRp437
S'VIDEO_PLAYBACK'
p438
g11
(tRp439
S'ROUTER_HIT_RATIO'
p440
F0
sS'BUFFER_RATIO'
p441
F2.7970000000000002
sS'CACHE_HIT_RATIO'
p442
F0.85286590330933576
sS'OVERHEAD'
p443
F7.5805720394077394
sS'BUFFERING_PER_CONTENT'
p444
g11
(tRp445
I1
I1464
sI2
I1646
sI3
I594
sI4
I719
sI5
I896
sI6
I64
sI7
I255
sI8
I69
sI9
I115
sI10
I481
sI11
I1
sI12
I57
sI13
I19
sI14
I23
sI15
I60
sI16
I396
sI17
I97
sI18
I2
sI19
I78
sI20
I14
sI21
I339
sI22
I6
sI23
I25
sI25
I86
sI26
I57
sI27
I11
sI29
I122
sI30
I9
sI31
I102
sI32
I3
sI33
I3
sI34
I27
sI36
I13
sI37
I12
sI40
I35
sI42
I36
sI43
I8
sI44
I9
sI45
I2
sI47
I70
sI48
I14
sI56
I2
sI57
I1
sI58
I31
sI59
I15
sI60
I6
sI62
I21
sI64
I3
sI65
I99
sI74
I1
sI75
I18
sI76
I3
sI78
I6
sI84
I60
sI88
I4
sI92
I43
sI95
I1
sI96
I38
ssstp446
a(g11
(tRp447
S'computation_placement'
p448
g11
(tRp449
S'service_budget'
p450
I1
sS'name'
p451
S'EDGE'
p452
sS'computation_budget'
p453
I1
ssS'workload'
p454
g11
(tRp455
S'n_contents'
p456
I100
sS'playback_rate'
p457
I10
sS'n_chunks'
p458
I1000
sS'n_warmup'
p459
I0
sS'rate'
p460
F10
sS'n_measured'
p461
F3000
sS'alpha'
p462
F0.75
sS'n_services'
p463
I1
sS'seed'
p464
I0
sS'wndw_size'
p465
I10
sg451
S'STATIONARY'
p466
ssS'sched_policy'
p467
g11
(tRp468
g451
S'EDF'
p469
ssS'cache_policy'
p470
g11
(tRp471
g451
S'LRU'
p472
ssS'strategy'
p473
g11
(tRp474
g456
I100
sg457
I10
sS'advertisement_period'
p475
F5
sg451
S'IPFS'
p476
sg465
I10
sg458
I1000
ssS'content_placement'
p477
g11
(tRp478
g451
S'UNIFORM'
p479
sg458
I1000
ssS'cache_placement'
p480
g11
(tRp481
S'network_cache'
p482
F1
sS'cache_budget'
p483
I2000
sg451
g452
ssS'desc'
p484
S'strategy: IPFS alpha 0.1'
p485
sS'warmup_strategy'
p486
g11
(tRp487
g456
I100
sg457
I10
sg475
F5
sg451
g476
sg465
I10
sg458
I1000
ssS'topology'
p488
g11
(tRp489
S'nrecv_per_edge'
p490
I10
sg451
S'TISCALI'
p491
ssg11
(tRp492
S'VIDEO_PLAYBACK'
p493
g11
(tRp494
S'ROUTER_HIT_RATIO'
p495
F0
sS'BUFFER_RATIO'
p496
F2.7970000000000002
sS'CACHE_HIT_RATIO'
p497
F0.85286590330933576
sS'OVERHEAD'
p498
F7.5805720394077394
sS'BUFFERING_PER_CONTENT'
p499
g11
(tRp500
I1
I1464
sI2
I1646
sI3
I594
sI4
I719
sI5
I896
sI6
I64
sI7
I255
sI8
I69
sI9
I115
sI10
I481
sI11
I1
sI12
I57
sI13
I19
sI14
I23
sI15
I60
sI16
I396
sI17
I97
sI18
I2
sI19
I78
sI20
I14
sI21
I339
sI22
I6
sI23
I25
sI25
I86
sI26
I57
sI27
I11
sI29
I122
sI30
I9
sI31
I102
sI32
I3
sI33
I3
sI34
I27
sI36
I13
sI37
I12
sI40
I35
sI42
I36
sI43
I8
sI44
I9
sI45
I2
sI47
I70
sI48
I14
sI56
I2
sI57
I1
sI58
I31
sI59
I15
sI60
I6
sI62
I21
sI64
I3
sI65
I99
sI74
I1
sI75
I18
sI76
I3
sI78
I6
sI84
I60
sI88
I4
sI92
I43
sI95
I1
sI96
I38
ssstp501
a(g11
(tRp502
S'computation_placement'
p503
g11
(tRp504
S'service_budget'
p505
I1
sS'name'
p506
S'EDGE'
p507
sS'computation_budget'
p508
I1
ssS'workload'
p509
g11
(tRp510
S'n_contents'
p511
I100
sS'playback_rate'
p512
I10
sS'n_chunks'
p513
I1000
sS'n_warmup'
p514
I0
sS'rate'
p515
F10
sS'n_measured'
p516
F3000
sS'alpha'
p517
F0.75
sS'n_services'
p518
I1
sS'seed'
p519
I0
sS'wndw_size'
p520
I10
sg506
S'STATIONARY'
p521
ssS'sched_policy'
p522
g11
(tRp523
g506
S'EDF'
p524
ssS'cache_policy'
p525
g11
(tRp526
g506
S'LRU'
p527
ssS'strategy'
p528
g11
(tRp529
g511
I100
sg512
I10
sS'advertisement_period'
p530
F5
sg513
I1000
sS'load_balance_distance'
p531
I1
sg520
I10
sg506
S'NDN'
p532
ssS'content_placement'
p533
g11
(tRp534
g506
S'UNIFORM'
p535
sg513
I1000
ssS'cache_placement'
p536
g11
(tRp537
S'network_cache'
p538
F1
sS'cache_budget'
p539
I2000
sg506
g507
ssS'desc'
p540
S'strategy: NDN alpha 0.5'
p541
sS'warmup_strategy'
p542
g11
(tRp543
g511
I100
sg512
I10
sg530
F5
sg506
g532
sg531
I1
sg520
I10
sg513
I1000
ssS'topology'
p544
g11
(tRp545
S'nrecv_per_edge'
p546
I10
sg506
S'TISCALI'
p547
ssg11
(tRp548
S'VIDEO_PLAYBACK'
p549
g11
(tRp550
S'ROUTER_HIT_RATIO'
p551
F0
sS'BUFFER_RATIO'
p552
F24.859333333333332
sS'CACHE_HIT_RATIO'
p553
F0.81803319029874111
sS'OVERHEAD'
p554
F3.418688777736294
sS'BUFFERING_PER_CONTENT'
p555
g11
(tRp556
I1
I18420
sI2
I7537
sI3
I7260
sI4
I2320
sI5
I2912
sI6
I3327
sI7
I1771
sI8
I868
sI9
I1198
sI10
I761
sI11
I1692
sI12
I1017
sI13
I823
sI14
I730
sI15
I270
sI16
I1366
sI17
I670
sI18
I568
sI19
I616
sI20
I659
sI21
I442
sI22
I1163
sI23
I489
sI24
I527
sI25
I267
sI26
I1306
sI27
I763
sI28
I563
sI29
I289
sI30
I615
sI31
I414
sI32
I811
sI33
I116
sI34
I287
sI35
I311
sI36
I229
sI37
I282
sI38
I302
sI39
I258
sI40
I340
sI41
I178
sI42
I417
sI43
I400
sI44
I112
sI45
I120
sI46
I78
sI47
I183
sI48
I261
sI49
I152
sI50
I150
sI51
I115
sI52
I29
sI53
I428
sI54
I587
sI55
I203
sI56
I175
sI57
I279
sI58
I666
sI59
I259
sI60
I192
sI61
I29
sI62
I194
sI63
I173
sI64
I31
sI65
I311
sI66
I444
sI67
I162
sI68
I60
sI69
I118
sI70
I69
sI71
I271
sI72
I324
sI73
I132
sI74
I64
sI75
I28
sI76
I46
sI77
I60
sI78
I288
sI79
I222
sI80
I190
sI81
I28
sI82
I103
sI83
I42
sI84
I33
sI85
I107
sI87
I49
sI88
I100
sI89
I60
sI90
I16
sI91
I83
sI92
I21
sI93
I216
sI94
I30
sI95
I289
sI96
I78
sI97
I134
sI98
I192
sI99
I238
ssstp557
a(g11
(tRp558
S'computation_placement'
p559
g11
(tRp560
S'service_budget'
p561
I1
sS'name'
p562
S'EDGE'
p563
sS'computation_budget'
p564
I1
ssS'workload'
p565
g11
(tRp566
S'n_contents'
p567
I100
sS'playback_rate'
p568
I10
sS'n_chunks'
p569
I1000
sS'n_warmup'
p570
I0
sS'rate'
p571
F10
sS'n_measured'
p572
F3000
sS'alpha'
p573
F0.75
sS'n_services'
p574
I1
sS'seed'
p575
I0
sS'wndw_size'
p576
I10
sg562
S'STATIONARY'
p577
ssS'sched_policy'
p578
g11
(tRp579
g562
S'EDF'
p580
ssS'cache_policy'
p581
g11
(tRp582
g562
S'LRU'
p583
ssS'strategy'
p584
g11
(tRp585
g567
I100
sg568
I10
sS'advertisement_period'
p586
F5
sg569
I1000
sS'load_balance_distance'
p587
I1
sg576
I10
sg562
S'NDN'
p588
ssS'content_placement'
p589
g11
(tRp590
g562
S'UNIFORM'
p591
sg569
I1000
ssS'cache_placement'
p592
g11
(tRp593
S'network_cache'
p594
F1
sS'cache_budget'
p595
I2000
sg562
g563
ssS'desc'
p596
S'strategy: NDN alpha 0.25'
p597
sS'warmup_strategy'
p598
g11
(tRp599
g567
I100
sg568
I10
sg586
F5
sg562
g588
sg587
I1
sg576
I10
sg569
I1000
ssS'topology'
p600
g11
(tRp601
S'nrecv_per_edge'
p602
I10
sg562
S'TISCALI'
p603
ssg11
(tRp604
S'VIDEO_PLAYBACK'
p605
g11
(tRp606
S'ROUTER_HIT_RATIO'
p607
F0
sS'BUFFER_RATIO'
p608
F24.859333333333332
sS'CACHE_HIT_RATIO'
p609
F0.81803319029874111
sS'OVERHEAD'
p610
F3.418688777736294
sS'BUFFERING_PER_CONTENT'
p611
g11
(tRp612
I1
I18420
sI2
I7537
sI3
I7260
sI4
I2320
sI5
I2912
sI6
I3327
sI7
I1771
sI8
I868
sI9
I1198
sI10
I761
sI11
I1692
sI12
I1017
sI13
I823
sI14
I730
sI15
I270
sI16
I1366
sI17
I670
sI18
I568
sI19
I616
sI20
I659
sI21
I442
sI22
I1163
sI23
I489
sI24
I527
sI25
I267
sI26
I1306
sI27
I763
sI28
I563
sI29
I289
sI30
I615
sI31
I414
sI32
I811
sI33
I116
sI34
I287
sI35
I311
sI36
I229
sI37
I282
sI38
I302
sI39
I258
sI40
I340
sI41
I178
sI42
I417
sI43
I400
sI44
I112
sI45
I120
sI46
I78
sI47
I183
sI48
I261
sI49
I152
sI50
I150
sI51
I115
sI52
I29
sI53
I428
sI54
I587
sI55
I203
sI56
I175
sI57
I279
sI58
I666
sI59
I259
sI60
I192
sI61
I29
sI62
I194
sI63
I173
sI64
I31
sI65
I311
sI66
I444
sI67
I162
sI68
I60
sI69
I118
sI70
I69
sI71
I271
sI72
I324
sI73
I132
sI74
I64
sI75
I28
sI76
I46
sI77
I60
sI78
I288
sI79
I222
sI80
I190
sI81
I28
sI82
I103
sI83
I42
sI84
I33
sI85
I107
sI87
I49
sI88
I100
sI89
I60
sI90
I16
sI91
I83
sI92
I21
sI93
I216
sI94
I30
sI95
I289
sI96
I78
sI97
I134
sI98
I192
sI99
I238
ssstp613
a(g11
(tRp614
S'computation_placement'
p615
g11
(tRp616
S'service_budget'
p617
I1
sS'name'
p618
S'EDGE'
p619
sS'computation_budget'
p620
I1
ssS'workload'
p621
g11
(tRp622
S'n_contents'
p623
I100
sS'playback_rate'
p624
I10
sS'n_chunks'
p625
I1000
sS'n_warmup'
p626
I0
sS'rate'
p627
F10
sS'n_measured'
p628
F3000
sS'alpha'
p629
F0.75
sS'n_services'
p630
I1
sS'seed'
p631
I0
sS'wndw_size'
p632
I10
sg618
S'STATIONARY'
p633
ssS'sched_policy'
p634
g11
(tRp635
g618
S'EDF'
p636
ssS'cache_policy'
p637
g11
(tRp638
g618
S'LRU'
p639
ssS'strategy'
p640
g11
(tRp641
g623
I100
sg624
I10
sS'advertisement_period'
p642
F5
sg625
I1000
sS'load_balance_distance'
p643
I1
sg632
I10
sg618
S'NDN'
p644
ssS'content_placement'
p645
g11
(tRp646
g618
S'UNIFORM'
p647
sg625
I1000
ssS'cache_placement'
p648
g11
(tRp649
S'network_cache'
p650
F1
sS'cache_budget'
p651
I2000
sg618
g619
ssS'desc'
p652
S'strategy: NDN alpha 0.1'
p653
sS'warmup_strategy'
p654
g11
(tRp655
g623
I100
sg624
I10
sg642
F5
sg618
g644
sg643
I1
sg632
I10
sg625
I1000
ssS'topology'
p656
g11
(tRp657
S'nrecv_per_edge'
p658
I10
sg618
S'TISCALI'
p659
ssg11
(tRp660
S'VIDEO_PLAYBACK'
p661
g11
(tRp662
S'ROUTER_HIT_RATIO'
p663
F0
sS'BUFFER_RATIO'
p664
F24.859333333333332
sS'CACHE_HIT_RATIO'
p665
F0.81803319029874111
sS'OVERHEAD'
p666
F3.418688777736294
sS'BUFFERING_PER_CONTENT'
p667
g11
(tRp668
I1
I18420
sI2
I7537
sI3
I7260
sI4
I2320
sI5
I2912
sI6
I3327
sI7
I1771
sI8
I868
sI9
I1198
sI10
I761
sI11
I1692
sI12
I1017
sI13
I823
sI14
I730
sI15
I270
sI16
I1366
sI17
I670
sI18
I568
sI19
I616
sI20
I659
sI21
I442
sI22
I1163
sI23
I489
sI24
I527
sI25
I267
sI26
I1306
sI27
I763
sI28
I563
sI29
I289
sI30
I615
sI31
I414
sI32
I811
sI33
I116
sI34
I287
sI35
I311
sI36
I229
sI37
I282
sI38
I302
sI39
I258
sI40
I340
sI41
I178
sI42
I417
sI43
I400
sI44
I112
sI45
I120
sI46
I78
sI47
I183
sI48
I261
sI49
I152
sI50
I150
sI51
I115
sI52
I29
sI53
I428
sI54
I587
sI55
I203
sI56
I175
sI57
I279
sI58
I666
sI59
I259
sI60
I192
sI61
I29
sI62
I194
sI63
I173
sI64
I31
sI65
I311
sI66
I444
sI67
I162
sI68
I60
sI69
I118
sI70
I69
sI71
I271
sI72
I324
sI73
I132
sI74
I64
sI75
I28
sI76
I46
sI77
I60
sI78
I288
sI79
I222
sI80
I190
sI81
I28
sI82
I103
sI83
I42
sI84
I33
sI85
I107
sI87
I49
sI88
I100
sI89
I60
sI90
I16
sI91
I83
sI92
I21
sI93
I216
sI94
I30
sI95
I289
sI96
I78
sI97
I134
sI98
I192
sI99
I238
ssstp669
a(g11
(tRp670
S'computation_placement'
p671
g11
(tRp672
S'service_budget'
p673
I1
sS'name'
p674
S'EDGE'
p675
sS'computation_budget'
p676
I1
ssS'workload'
p677
g11
(tRp678
S'n_contents'
p679
I100
sS'playback_rate'
p680
I10
sS'n_chunks'
p681
I1000
sS'n_warmup'
p682
I0
sS'rate'
p683
F10
sS'n_measured'
p684
F3000
sS'alpha'
p685
F0.75
sS'n_services'
p686
I1
sS'seed'
p687
I0
sS'wndw_size'
p688
I10
sg674
S'STATIONARY'
p689
ssS'sched_policy'
p690
g11
(tRp691
g674
S'EDF'
p692
ssS'cache_policy'
p693
g11
(tRp694
g674
S'LRU'
p695
ssS'strategy'
p696
g11
(tRp697
g679
I100
sg680
I10
sS'advertisement_period'
p698
F5
sg681
I1000
sS'load_balance_distance'
p699
I1
sg688
I10
sg674
S'NDN'
p700
ssS'content_placement'
p701
g11
(tRp702
g674
S'UNIFORM'
p703
sg681
I1000
ssS'cache_placement'
p704
g11
(tRp705
S'network_cache'
p706
F1
sS'cache_budget'
p707
I2000
sg674
g675
ssS'desc'
p708
S'strategy: NDN alpha 1.0'
p709
sS'warmup_strategy'
p710
g11
(tRp711
g679
I100
sg680
I10
sg698
F5
sg674
g700
sg699
I1
sg688
I10
sg681
I1000
ssS'topology'
p712
g11
(tRp713
S'nrecv_per_edge'
p714
I10
sg674
S'TISCALI'
p715
ssg11
(tRp716
S'VIDEO_PLAYBACK'
p717
g11
(tRp718
S'ROUTER_HIT_RATIO'
p719
F0
sS'BUFFER_RATIO'
p720
F24.859333333333332
sS'CACHE_HIT_RATIO'
p721
F0.81803319029874111
sS'OVERHEAD'
p722
F3.418688777736294
sS'BUFFERING_PER_CONTENT'
p723
g11
(tRp724
I1
I18420
sI2
I7537
sI3
I7260
sI4
I2320
sI5
I2912
sI6
I3327
sI7
I1771
sI8
I868
sI9
I1198
sI10
I761
sI11
I1692
sI12
I1017
sI13
I823
sI14
I730
sI15
I270
sI16
I1366
sI17
I670
sI18
I568
sI19
I616
sI20
I659
sI21
I442
sI22
I1163
sI23
I489
sI24
I527
sI25
I267
sI26
I1306
sI27
I763
sI28
I563
sI29
I289
sI30
I615
sI31
I414
sI32
I811
sI33
I116
sI34
I287
sI35
I311
sI36
I229
sI37
I282
sI38
I302
sI39
I258
sI40
I340
sI41
I178
sI42
I417
sI43
I400
sI44
I112
sI45
I120
sI46
I78
sI47
I183
sI48
I261
sI49
I152
sI50
I150
sI51
I115
sI52
I29
sI53
I428
sI54
I587
sI55
I203
sI56
I175
sI57
I279
sI58
I666
sI59
I259
sI60
I192
sI61
I29
sI62
I194
sI63
I173
sI64
I31
sI65
I311
sI66
I444
sI67
I162
sI68
I60
sI69
I118
sI70
I69
sI71
I271
sI72
I324
sI73
I132
sI74
I64
sI75
I28
sI76
I46
sI77
I60
sI78
I288
sI79
I222
sI80
I190
sI81
I28
sI82
I103
sI83
I42
sI84
I33
sI85
I107
sI87
I49
sI88
I100
sI89
I60
sI90
I16
sI91
I83
sI92
I21
sI93
I216
sI94
I30
sI95
I289
sI96
I78
sI97
I134
sI98
I192
sI99
I238
ssstp725
a(g11
(tRp726
S'computation_placement'
p727
g11
(tRp728
S'service_budget'
p729
I1
sS'name'
p730
S'EDGE'
p731
sS'computation_budget'
p732
I1
ssS'workload'
p733
g11
(tRp734
S'n_contents'
p735
I100
sS'playback_rate'
p736
I10
sS'n_chunks'
p737
I1000
sS'n_warmup'
p738
I0
sS'rate'
p739
F10
sS'n_measured'
p740
F3000
sS'alpha'
p741
F0.75
sS'n_services'
p742
I1
sS'seed'
p743
I0
sS'wndw_size'
p744
I10
sg730
S'STATIONARY'
p745
ssS'sched_policy'
p746
g11
(tRp747
g730
S'EDF'
p748
ssS'cache_policy'
p749
g11
(tRp750
g730
S'LRU'
p751
ssS'strategy'
p752
g11
(tRp753
g735
I100
sg736
I10
sS'advertisement_period'
p754
F5
sg737
I1000
sS'load_balance_distance'
p755
I1
sg744
I10
sg730
S'NDN'
p756
ssS'content_placement'
p757
g11
(tRp758
g730
S'UNIFORM'
p759
sg737
I1000
ssS'cache_placement'
p760
g11
(tRp761
S'network_cache'
p762
F1
sS'cache_budget'
p763
I2000
sg730
g731
ssS'desc'
p764
S'strategy: NDN alpha 0.75'
p765
sS'warmup_strategy'
p766
g11
(tRp767
g735
I100
sg736
I10
sg754
F5
sg730
g756
sg755
I1
sg744
I10
sg737
I1000
ssS'topology'
p768
g11
(tRp769
S'nrecv_per_edge'
p770
I10
sg730
S'TISCALI'
p771
ssg11
(tRp772
S'VIDEO_PLAYBACK'
p773
g11
(tRp774
S'ROUTER_HIT_RATIO'
p775
F0
sS'BUFFER_RATIO'
p776
F24.859333333333332
sS'CACHE_HIT_RATIO'
p777
F0.81803319029874111
sS'OVERHEAD'
p778
F3.418688777736294
sS'BUFFERING_PER_CONTENT'
p779
g11
(tRp780
I1
I18420
sI2
I7537
sI3
I7260
sI4
I2320
sI5
I2912
sI6
I3327
sI7
I1771
sI8
I868
sI9
I1198
sI10
I761
sI11
I1692
sI12
I1017
sI13
I823
sI14
I730
sI15
I270
sI16
I1366
sI17
I670
sI18
I568
sI19
I616
sI20
I659
sI21
I442
sI22
I1163
sI23
I489
sI24
I527
sI25
I267
sI26
I1306
sI27
I763
sI28
I563
sI29
I289
sI30
I615
sI31
I414
sI32
I811
sI33
I116
sI34
I287
sI35
I311
sI36
I229
sI37
I282
sI38
I302
sI39
I258
sI40
I340
sI41
I178
sI42
I417
sI43
I400
sI44
I112
sI45
I120
sI46
I78
sI47
I183
sI48
I261
sI49
I152
sI50
I150
sI51
I115
sI52
I29
sI53
I428
sI54
I587
sI55
I203
sI56
I175
sI57
I279
sI58
I666
sI59
I259
sI60
I192
sI61
I29
sI62
I194
sI63
I173
sI64
I31
sI65
I311
sI66
I444
sI67
I162
sI68
I60
sI69
I118
sI70
I69
sI71
I271
sI72
I324
sI73
I132
sI74
I64
sI75
I28
sI76
I46
sI77
I60
sI78
I288
sI79
I222
sI80
I190
sI81
I28
sI82
I103
sI83
I42
sI84
I33
sI85
I107
sI87
I49
sI88
I100
sI89
I60
sI90
I16
sI91
I83
sI92
I21
sI93
I216
sI94
I30
sI95
I289
sI96
I78
sI97
I134
sI98
I192
sI99
I238
ssstp781
a(g11
(tRp782
S'computation_placement'
p783
g11
(tRp784
S'service_budget'
p785
I1
sS'name'
p786
S'EDGE'
p787
sS'computation_budget'
p788
I1
ssS'workload'
p789
g11
(tRp790
S'n_contents'
p791
I100
sS'playback_rate'
p792
I10
sS'n_chunks'
p793
I1000
sS'n_warmup'
p794
I0
sS'rate'
p795
F10
sS'n_measured'
p796
F3000
sS'alpha'
p797
F0.75
sS'n_services'
p798
I1
sS'seed'
p799
I0
sS'wndw_size'
p800
I10
sg786
S'STATIONARY'
p801
ssS'sched_policy'
p802
g11
(tRp803
g786
S'EDF'
p804
ssS'cache_policy'
p805
g11
(tRp806
g786
S'LRU'
p807
ssS'strategy'
p808
g11
(tRp809
g791
I100
sg792
I10
sS'advertisement_period'
p810
F5
sg786
S'NDN_MEASUREMENT'
p811
sg800
I10
sg793
I1000
ssS'content_placement'
p812
g11
(tRp813
g786
S'UNIFORM'
p814
sg793
I1000
ssS'cache_placement'
p815
g11
(tRp816
S'network_cache'
p817
F1
sS'cache_budget'
p818
I2000
sg786
g787
ssS'desc'
p819
S'strategy: NDN_MEASUREMENT alpha 0.5'
p820
sS'warmup_strategy'
p821
g11
(tRp822
g791
I100
sg792
I10
sg810
F5
sg786
g811
sg800
I10
sg793
I1000
ssS'topology'
p823
g11
(tRp824
S'nrecv_per_edge'
p825
I10
sg786
S'TISCALI'
p826
ssg11
(tRp827
S'VIDEO_PLAYBACK'
p828
g11
(tRp829
S'ROUTER_HIT_RATIO'
p830
F0
sS'BUFFER_RATIO'
p831
F1.9966666666666666
sS'CACHE_HIT_RATIO'
p832
F0.80814533333333338
sS'OVERHEAD'
p833
F6.8349789999999997
sS'BUFFERING_PER_CONTENT'
p834
g11
(tRp835
I1
I1422
sI2
I732
sI3
I313
sI4
I368
sI5
I474
sI6
I139
sI7
I179
sI8
I108
sI9
I38
sI10
I72
sI11
I130
sI12
I91
sI13
I118
sI14
I70
sI15
I160
sI16
I90
sI17
I26
sI18
I15
sI19
I24
sI20
I78
sI21
I110
sI22
I26
sI23
I14
sI24
I34
sI25
I27
sI26
I27
sI27
I61
sI28
I46
sI29
I29
sI30
I7
sI31
I73
sI32
I68
sI33
I32
sI34
I26
sI35
I17
sI36
I29
sI37
I24
sI38
I24
sI39
I18
sI40
I23
sI41
I12
sI42
I4
sI43
I43
sI44
I52
sI45
I18
sI46
I30
sI48
I1
sI49
I2
sI50
I3
sI51
I44
sI52
I20
sI53
I20
sI54
I10
sI55
I19
sI56
I16
sI57
I4
sI58
I7
sI59
I12
sI60
I4
sI61
I8
sI62
I14
sI63
I20
sI64
I9
sI65
I7
sI66
I8
sI67
I8
sI68
I36
sI69
I4
sI70
I14
sI73
I6
sI74
I2
sI75
I20
sI76
I8
sI77
I11
sI78
I1
sI79
I4
sI80
I22
sI81
I4
sI82
I10
sI83
I5
sI84
I3
sI85
I1
sI87
I11
sI88
I4
sI89
I28
sI90
I2
sI91
I21
sI93
I3
sI94
I4
sI95
I2
sI96
I2
sI99
I5
ssstp836
a(g11
(tRp837
S'computation_placement'
p838
g11
(tRp839
S'service_budget'
p840
I1
sS'name'
p841
S'EDGE'
p842
sS'computation_budget'
p843
I1
ssS'workload'
p844
g11
(tRp845
S'n_contents'
p846
I100
sS'playback_rate'
p847
I10
sS'n_chunks'
p848
I1000
sS'n_warmup'
p849
I0
sS'rate'
p850
F10
sS'n_measured'
p851
F3000
sS'alpha'
p852
F0.75
sS'n_services'
p853
I1
sS'seed'
p854
I0
sS'wndw_size'
p855
I10
sg841
S'STATIONARY'
p856
ssS'sched_policy'
p857
g11
(tRp858
g841
S'EDF'
p859
ssS'cache_policy'
p860
g11
(tRp861
g841
S'LRU'
p862
ssS'strategy'
p863
g11
(tRp864
g846
I100
sg847
I10
sS'advertisement_period'
p865
F5
sg841
S'NDN_MEASUREMENT'
p866
sg855
I10
sg848
I1000
ssS'content_placement'
p867
g11
(tRp868
g841
S'UNIFORM'
p869
sg848
I1000
ssS'cache_placement'
p870
g11
(tRp871
S'network_cache'
p872
F1
sS'cache_budget'
p873
I2000
sg841
g842
ssS'desc'
p874
S'strategy: NDN_MEASUREMENT alpha 0.75'
p875
sS'warmup_strategy'
p876
g11
(tRp877
g846
I100
sg847
I10
sg865
F5
sg841
g866
sg855
I10
sg848
I1000
ssS'topology'
p878
g11
(tRp879
S'nrecv_per_edge'
p880
I10
sg841
S'TISCALI'
p881
ssg11
(tRp882
S'VIDEO_PLAYBACK'
p883
g11
(tRp884
S'ROUTER_HIT_RATIO'
p885
F0
sS'BUFFER_RATIO'
p886
F1.9966666666666666
sS'CACHE_HIT_RATIO'
p887
F0.80814533333333338
sS'OVERHEAD'
p888
F6.8349789999999997
sS'BUFFERING_PER_CONTENT'
p889
g11
(tRp890
I1
I1422
sI2
I732
sI3
I313
sI4
I368
sI5
I474
sI6
I139
sI7
I179
sI8
I108
sI9
I38
sI10
I72
sI11
I130
sI12
I91
sI13
I118
sI14
I70
sI15
I160
sI16
I90
sI17
I26
sI18
I15
sI19
I24
sI20
I78
sI21
I110
sI22
I26
sI23
I14
sI24
I34
sI25
I27
sI26
I27
sI27
I61
sI28
I46
sI29
I29
sI30
I7
sI31
I73
sI32
I68
sI33
I32
sI34
I26
sI35
I17
sI36
I29
sI37
I24
sI38
I24
sI39
I18
sI40
I23
sI41
I12
sI42
I4
sI43
I43
sI44
I52
sI45
I18
sI46
I30
sI48
I1
sI49
I2
sI50
I3
sI51
I44
sI52
I20
sI53
I20
sI54
I10
sI55
I19
sI56
I16
sI57
I4
sI58
I7
sI59
I12
sI60
I4
sI61
I8
sI62
I14
sI63
I20
sI64
I9
sI65
I7
sI66
I8
sI67
I8
sI68
I36
sI69
I4
sI70
I14
sI73
I6
sI74
I2
sI75
I20
sI76
I8
sI77
I11
sI78
I1
sI79
I4
sI80
I22
sI81
I4
sI82
I10
sI83
I5
sI84
I3
sI85
I1
sI87
I11
sI88
I4
sI89
I28
sI90
I2
sI91
I21
sI93
I3
sI94
I4
sI95
I2
sI96
I2
sI99
I5
ssstp891
a(g11
(tRp892
S'computation_placement'
p893
g11
(tRp894
S'service_budget'
p895
I1
sS'name'
p896
S'EDGE'
p897
sS'computation_budget'
p898
I1
ssS'workload'
p899
g11
(tRp900
S'n_contents'
p901
I100
sS'playback_rate'
p902
I10
sS'n_chunks'
p903
I1000
sS'n_warmup'
p904
I0
sS'rate'
p905
F10
sS'n_measured'
p906
F3000
sS'alpha'
p907
F0.75
sS'n_services'
p908
I1
sS'seed'
p909
I0
sS'wndw_size'
p910
I10
sg896
S'STATIONARY'
p911
ssS'sched_policy'
p912
g11
(tRp913
g896
S'EDF'
p914
ssS'cache_policy'
p915
g11
(tRp916
g896
S'LRU'
p917
ssS'strategy'
p918
g11
(tRp919
g901
I100
sg902
I10
sS'advertisement_period'
p920
F5
sg896
S'NDN_MEASUREMENT'
p921
sg910
I10
sg903
I1000
ssS'content_placement'
p922
g11
(tRp923
g896
S'UNIFORM'
p924
sg903
I1000
ssS'cache_placement'
p925
g11
(tRp926
S'network_cache'
p927
F1
sS'cache_budget'
p928
I2000
sg896
g897
ssS'desc'
p929
S'strategy: NDN_MEASUREMENT alpha 1.0'
p930
sS'warmup_strategy'
p931
g11
(tRp932
g901
I100
sg902
I10
sg920
F5
sg896
g921
sg910
I10
sg903
I1000
ssS'topology'
p933
g11
(tRp934
S'nrecv_per_edge'
p935
I10
sg896
S'TISCALI'
p936
ssg11
(tRp937
S'VIDEO_PLAYBACK'
p938
g11
(tRp939
S'ROUTER_HIT_RATIO'
p940
F0
sS'BUFFER_RATIO'
p941
F1.9966666666666666
sS'CACHE_HIT_RATIO'
p942
F0.80814533333333338
sS'OVERHEAD'
p943
F6.8349789999999997
sS'BUFFERING_PER_CONTENT'
p944
g11
(tRp945
I1
I1422
sI2
I732
sI3
I313
sI4
I368
sI5
I474
sI6
I139
sI7
I179
sI8
I108
sI9
I38
sI10
I72
sI11
I130
sI12
I91
sI13
I118
sI14
I70
sI15
I160
sI16
I90
sI17
I26
sI18
I15
sI19
I24
sI20
I78
sI21
I110
sI22
I26
sI23
I14
sI24
I34
sI25
I27
sI26
I27
sI27
I61
sI28
I46
sI29
I29
sI30
I7
sI31
I73
sI32
I68
sI33
I32
sI34
I26
sI35
I17
sI36
I29
sI37
I24
sI38
I24
sI39
I18
sI40
I23
sI41
I12
sI42
I4
sI43
I43
sI44
I52
sI45
I18
sI46
I30
sI48
I1
sI49
I2
sI50
I3
sI51
I44
sI52
I20
sI53
I20
sI54
I10
sI55
I19
sI56
I16
sI57
I4
sI58
I7
sI59
I12
sI60
I4
sI61
I8
sI62
I14
sI63
I20
sI64
I9
sI65
I7
sI66
I8
sI67
I8
sI68
I36
sI69
I4
sI70
I14
sI73
I6
sI74
I2
sI75
I20
sI76
I8
sI77
I11
sI78
I1
sI79
I4
sI80
I22
sI81
I4
sI82
I10
sI83
I5
sI84
I3
sI85
I1
sI87
I11
sI88
I4
sI89
I28
sI90
I2
sI91
I21
sI93
I3
sI94
I4
sI95
I2
sI96
I2
sI99
I5
ssstp946
atRp947
sb.