ccopy_reg
_reconstructor
p1
(cicarus.results.readwrite
ResultSet
p2
c__builtin__
object
p3
NtRp4
(dp5
S'attr'
p6
(dp7
sS'_results'
p8
ccollections
deque
p9
((lp10
(cicarus.util
Tree
p11
(tRp12
S'computation_placement'
p13
g11
(tRp14
S'service_budget'
p15
I1
sS'name'
p16
S'EDGE'
p17
sS'computation_budget'
p18
I1
ssS'workload'
p19
g11
(tRp20
S'n_contents'
p21
I100
sS'playback_rate'
p22
I10
sS'n_chunks'
p23
I100
sS'n_warmup'
p24
I0
sS'rate'
p25
F60
sS'n_measured'
p26
F18000
sS'alpha'
p27
F0.75
sS'n_services'
p28
I1
sS'seed'
p29
I0
sS'wndw_size'
p30
I10
sg16
S'STATIONARY'
p31
ssS'sched_policy'
p32
g11
(tRp33
g16
S'EDF'
p34
ssS'cache_policy'
p35
g11
(tRp36
g16
S'LRU'
p37
ssS'strategy'
p38
g11
(tRp39
g21
I100
sg22
I10
sS'advertisement_period'
p40
F10
sg23
I100
sS'load_balance_distance'
p41
I1
sg30
I20
sg16
S'NDN'
p42
ssS'content_placement'
p43
g11
(tRp44
g16
S'UNIFORM'
p45
sg23
I100
ssS'cache_placement'
p46
g11
(tRp47
S'network_cache'
p48
F1
sS'cache_budget'
p49
I200
sg16
g17
ssS'desc'
p50
S'strategy: NDN buffer size 20'
p51
sS'warmup_strategy'
p52
g11
(tRp53
g21
I100
sg22
I10
sg40
F10
sg16
g42
sg41
I1
sg30
I20
sg23
I100
ssS'topology'
p54
g11
(tRp55
S'nrecv_per_edge'
p56
I10
sg16
S'TISCALI'
p57
ssg11
(tRp58
S'VIDEO_PLAYBACK'
p59
g11
(tRp60
S'BUFFER_RATIO'
p61
F0.014888888888888889
sS'CACHE_HIT_RATIO'
p62
F0.77210166666666669
sS'OVERHEAD'
p63
F3.0274827777777777
sS'BUFFERING_PER_CONTENT'
p64
g11
(tRp65
I3
I4
sI4
I3
sI5
I18
sI8
I1
sI9
I4
sI13
I3
sI14
I5
sI15
I2
sI16
I5
sI17
I1
sI18
I4
sI19
I3
sI20
I3
sI22
I5
sI23
I2
sI24
I2
sI25
I2
sI27
I5
sI29
I15
sI31
I16
sI33
I10
sI35
I4
sI36
I6
sI38
I6
sI40
I3
sI41
I3
sI42
I3
sI43
I9
sI44
I3
sI45
I4
sI47
I4
sI48
I3
sI49
I4
sI50
I2
sI51
I3
sI54
I7
sI57
I3
sI58
I2
sI61
I8
sI62
I2
sI63
I1
sI64
I7
sI65
I3
sI77
I4
sI78
I3
sI80
I8
sI81
I2
sI83
I1
sI84
I7
sI85
I3
sI86
I3
sI89
I3
sI90
I6
sI91
I4
sI92
I3
sI94
I1
sI96
I5
sI98
I3
sI99
I9
ssstp66
a(g11
(tRp67
S'computation_placement'
p68
g11
(tRp69
S'service_budget'
p70
I1
sS'name'
p71
S'EDGE'
p72
sS'computation_budget'
p73
I1
ssS'workload'
p74
g11
(tRp75
S'n_contents'
p76
I100
sS'playback_rate'
p77
I10
sS'n_chunks'
p78
I100
sS'n_warmup'
p79
I0
sS'rate'
p80
F60
sS'n_measured'
p81
F18000
sS'alpha'
p82
F0.75
sS'n_services'
p83
I1
sS'seed'
p84
I0
sS'wndw_size'
p85
I10
sg71
S'STATIONARY'
p86
ssS'sched_policy'
p87
g11
(tRp88
g71
S'EDF'
p89
ssS'cache_policy'
p90
g11
(tRp91
g71
S'LRU'
p92
ssS'strategy'
p93
g11
(tRp94
g76
I100
sg77
I10
sS'advertisement_period'
p95
F10
sg78
I100
sS'load_balance_distance'
p96
I1
sg85
I10
sg71
S'NDN'
p97
ssS'content_placement'
p98
g11
(tRp99
g71
S'UNIFORM'
p100
sg78
I100
ssS'cache_placement'
p101
g11
(tRp102
S'network_cache'
p103
F1
sS'cache_budget'
p104
I200
sg71
g72
ssS'desc'
p105
S'strategy: NDN buffer size 10'
p106
sS'warmup_strategy'
p107
g11
(tRp108
g76
I100
sg77
I10
sg95
F10
sg71
g97
sg96
I1
sg85
I10
sg78
I100
ssS'topology'
p109
g11
(tRp110
S'nrecv_per_edge'
p111
I10
sg71
S'TISCALI'
p112
ssg11
(tRp113
S'VIDEO_PLAYBACK'
p114
g11
(tRp115
S'BUFFER_RATIO'
p116
F0.084500000000000006
sS'CACHE_HIT_RATIO'
p117
F0.7594394570624492
sS'OVERHEAD'
p118
F3.0508305015570327
sS'BUFFERING_PER_CONTENT'
p119
g11
(tRp120
I1
I19
sI2
I3
sI3
I30
sI4
I25
sI5
I86
sI6
I8
sI7
I4
sI8
I7
sI9
I6
sI10
I13
sI11
I9
sI12
I35
sI13
I15
sI14
I57
sI15
I25
sI16
I9
sI17
I21
sI18
I2
sI19
I16
sI20
I27
sI21
I9
sI22
I13
sI23
I10
sI24
I12
sI25
I6
sI26
I22
sI27
I12
sI28
I18
sI29
I40
sI30
I30
sI31
I51
sI32
I23
sI33
I32
sI34
I4
sI35
I17
sI36
I7
sI37
I4
sI38
I13
sI40
I5
sI41
I27
sI42
I34
sI43
I37
sI44
I28
sI45
I9
sI46
I7
sI47
I18
sI48
I24
sI50
I29
sI51
I34
sI52
I28
sI53
I1
sI54
I1
sI55
I7
sI56
I7
sI57
I14
sI58
I17
sI60
I6
sI61
I10
sI62
I56
sI63
I8
sI64
I27
sI66
I5
sI67
I7
sI69
I9
sI70
I13
sI71
I4
sI72
I3
sI73
I9
sI74
I1
sI75
I3
sI76
I2
sI77
I4
sI78
I30
sI79
I4
sI80
I6
sI81
I10
sI82
I59
sI83
I21
sI84
I7
sI85
I5
sI86
I2
sI88
I3
sI89
I11
sI90
I10
sI91
I10
sI92
I39
sI93
I13
sI96
I19
sI97
I2
sI98
I1
sI99
I35
ssstp121
a(g11
(tRp122
S'computation_placement'
p123
g11
(tRp124
S'service_budget'
p125
I1
sS'name'
p126
S'EDGE'
p127
sS'computation_budget'
p128
I1
ssS'workload'
p129
g11
(tRp130
S'n_contents'
p131
I100
sS'playback_rate'
p132
I10
sS'n_chunks'
p133
I100
sS'n_warmup'
p134
I0
sS'rate'
p135
F60
sS'n_measured'
p136
F18000
sS'alpha'
p137
F0.75
sS'n_services'
p138
I1
sS'seed'
p139
I0
sS'wndw_size'
p140
I10
sg126
S'STATIONARY'
p141
ssS'sched_policy'
p142
g11
(tRp143
g126
S'EDF'
p144
ssS'cache_policy'
p145
g11
(tRp146
g126
S'LRU'
p147
ssS'strategy'
p148
g11
(tRp149
g132
I10
sg140
I10
sg126
S'OPTIMAL'
p150
sg133
I100
ssS'content_placement'
p151
g11
(tRp152
g126
S'UNIFORM'
p153
sg133
I100
ssS'cache_placement'
p154
g11
(tRp155
S'network_cache'
p156
F1
sS'cache_budget'
p157
I200
sg126
g127
ssS'desc'
p158
S'strategy: OPTIMAL buffer size 10'
p159
sS'warmup_strategy'
p160
g11
(tRp161
g133
I100
sg132
I10
sg126
g150
sg140
I10
ssS'topology'
p162
g11
(tRp163
S'nrecv_per_edge'
p164
I10
sg126
S'TISCALI'
p165
ssg11
(tRp166
S'VIDEO_PLAYBACK'
p167
g11
(tRp168
S'BUFFER_RATIO'
p169
F0.0021111111111111109
sS'CACHE_HIT_RATIO'
p170
F0.99058388888888893
sS'OVERHEAD'
p171
F3.4719511111111112
sS'BUFFERING_PER_CONTENT'
p172
g11
(tRp173
I1
I1
sI2
I2
sI3
I7
sI4
I7
sI5
I4
sI6
I4
sI7
I4
sI8
I3
sI11
I1
sI50
I1
sI84
I1
sI89
I1
sI92
I1
sI36
I1
ssstp174
a(g11
(tRp175
S'computation_placement'
p176
g11
(tRp177
S'service_budget'
p178
I1
sS'name'
p179
S'EDGE'
p180
sS'computation_budget'
p181
I1
ssS'workload'
p182
g11
(tRp183
S'n_contents'
p184
I100
sS'playback_rate'
p185
I10
sS'n_chunks'
p186
I100
sS'n_warmup'
p187
I0
sS'rate'
p188
F60
sS'n_measured'
p189
F18000
sS'alpha'
p190
F0.75
sS'n_services'
p191
I1
sS'seed'
p192
I0
sS'wndw_size'
p193
I10
sg179
S'STATIONARY'
p194
ssS'sched_policy'
p195
g11
(tRp196
g179
S'EDF'
p197
ssS'cache_policy'
p198
g11
(tRp199
g179
S'LRU'
p200
ssS'strategy'
p201
g11
(tRp202
g185
I10
sg193
I20
sg179
S'OPTIMAL'
p203
sg186
I100
ssS'content_placement'
p204
g11
(tRp205
g179
S'UNIFORM'
p206
sg186
I100
ssS'cache_placement'
p207
g11
(tRp208
S'network_cache'
p209
F1
sS'cache_budget'
p210
I200
sg179
g180
ssS'desc'
p211
S'strategy: OPTIMAL buffer size 20'
p212
sS'warmup_strategy'
p213
g11
(tRp214
g186
I100
sg185
I10
sg179
g203
sg193
I20
ssS'topology'
p215
g11
(tRp216
S'nrecv_per_edge'
p217
I10
sg179
S'TISCALI'
p218
ssg11
(tRp219
S'VIDEO_PLAYBACK'
p220
g11
(tRp221
S'BUFFER_RATIO'
p222
F0.00033333333333333332
sS'CACHE_HIT_RATIO'
p223
F0.9910066666666667
sS'OVERHEAD'
p224
F3.912787777777778
sS'BUFFERING_PER_CONTENT'
p225
g11
(tRp226
I1
I1
sI2
I1
sI4
I2
sI29
I1
sI23
I1
ssstp227
a(g11
(tRp228
S'computation_placement'
p229
g11
(tRp230
S'service_budget'
p231
I1
sS'name'
p232
S'EDGE'
p233
sS'computation_budget'
p234
I1
ssS'workload'
p235
g11
(tRp236
S'n_contents'
p237
I100
sS'playback_rate'
p238
I10
sS'n_chunks'
p239
I100
sS'n_warmup'
p240
I0
sS'rate'
p241
F60
sS'n_measured'
p242
F18000
sS'alpha'
p243
F0.75
sS'n_services'
p244
I1
sS'seed'
p245
I0
sS'wndw_size'
p246
I10
sg232
S'STATIONARY'
p247
ssS'sched_policy'
p248
g11
(tRp249
g232
S'EDF'
p250
ssS'cache_policy'
p251
g11
(tRp252
g232
S'LRU'
p253
ssS'strategy'
p254
g11
(tRp255
g237
I100
sg238
I10
sS'advertisement_period'
p256
F10
sg232
S'NDN_MEASUREMENT'
p257
sg246
I20
sg239
I100
ssS'content_placement'
p258
g11
(tRp259
g232
S'UNIFORM'
p260
sg239
I100
ssS'cache_placement'
p261
g11
(tRp262
S'network_cache'
p263
F1
sS'cache_budget'
p264
I200
sg232
g233
ssS'desc'
p265
S'strategy: NDN_MEASUREMENT buffer size 20'
p266
sS'warmup_strategy'
p267
g11
(tRp268
g237
I100
sg238
I10
sg256
F10
sg232
g257
sg246
I20
sg239
I100
ssS'topology'
p269
g11
(tRp270
S'nrecv_per_edge'
p271
I10
sg232
S'TISCALI'
p272
ssg11
(tRp273
S'VIDEO_PLAYBACK'
p274
g11
(tRp275
S'BUFFER_RATIO'
p276
F0.051833333333333335
sS'CACHE_HIT_RATIO'
p277
F0.80212685572050846
sS'OVERHEAD'
p278
F6.0366160325362257
sS'BUFFERING_PER_CONTENT'
p279
g11
(tRp280
I1
I42
sI2
I38
sI3
I26
sI4
I51
sI5
I14
sI6
I16
sI7
I16
sI8
I11
sI9
I7
sI10
I9
sI11
I9
sI12
I12
sI13
I17
sI14
I7
sI16
I12
sI17
I4
sI18
I4
sI19
I1
sI21
I5
sI22
I5
sI23
I1
sI24
I58
sI25
I1
sI26
I2
sI27
I8
sI28
I1
sI29
I20
sI30
I1
sI32
I11
sI33
I4
sI34
I23
sI35
I6
sI36
I19
sI37
I9
sI39
I10
sI40
I9
sI41
I38
sI42
I14
sI43
I32
sI44
I11
sI45
I4
sI46
I2
sI47
I2
sI48
I3
sI49
I4
sI50
I10
sI51
I6
sI52
I12
sI53
I15
sI54
I1
sI55
I1
sI57
I11
sI58
I5
sI59
I6
sI60
I1
sI62
I1
sI63
I3
sI65
I6
sI67
I1
sI69
I14
sI70
I32
sI73
I24
sI74
I3
sI76
I13
sI77
I19
sI78
I13
sI80
I4
sI81
I20
sI82
I28
sI84
I1
sI85
I2
sI86
I7
sI87
I4
sI88
I5
sI89
I9
sI90
I9
sI91
I14
sI92
I7
sI94
I7
sI96
I6
sI97
I2
sI98
I1
sI99
I11
ssstp281
a(g11
(tRp282
S'computation_placement'
p283
g11
(tRp284
S'service_budget'
p285
I1
sS'name'
p286
S'EDGE'
p287
sS'computation_budget'
p288
I1
ssS'workload'
p289
g11
(tRp290
S'n_contents'
p291
I100
sS'playback_rate'
p292
I10
sS'n_chunks'
p293
I100
sS'n_warmup'
p294
I0
sS'rate'
p295
F60
sS'n_measured'
p296
F18000
sS'alpha'
p297
F0.75
sS'n_services'
p298
I1
sS'seed'
p299
I0
sS'wndw_size'
p300
I10
sg286
S'STATIONARY'
p301
ssS'sched_policy'
p302
g11
(tRp303
g286
S'EDF'
p304
ssS'cache_policy'
p305
g11
(tRp306
g286
S'LRU'
p307
ssS'strategy'
p308
g11
(tRp309
g291
I100
sg292
I10
sS'advertisement_period'
p310
F10
sg286
S'NDN_MEASUREMENT'
p311
sg300
I10
sg293
I100
ssS'content_placement'
p312
g11
(tRp313
g286
S'UNIFORM'
p314
sg293
I100
ssS'cache_placement'
p315
g11
(tRp316
S'network_cache'
p317
F1
sS'cache_budget'
p318
I200
sg286
g287
ssS'desc'
p319
S'strategy: NDN_MEASUREMENT buffer size 10'
p320
sS'warmup_strategy'
p321
g11
(tRp322
g291
I100
sg292
I10
sg310
F10
sg286
g311
sg300
I10
sg293
I100
ssS'topology'
p323
g11
(tRp324
S'nrecv_per_edge'
p325
I10
sg286
S'TISCALI'
p326
ssg11
(tRp327
S'VIDEO_PLAYBACK'
p328
g11
(tRp329
S'BUFFER_RATIO'
p330
F0.55583333333333329
sS'CACHE_HIT_RATIO'
p331
F0.79971666666666663
sS'OVERHEAD'
p332
F6.0317150000000002
sS'BUFFERING_PER_CONTENT'
p333
g11
(tRp334
I1
I469
sI2
I413
sI3
I541
sI4
I498
sI5
I259
sI6
I309
sI7
I157
sI8
I250
sI9
I187
sI10
I235
sI11
I121
sI12
I259
sI13
I133
sI14
I328
sI15
I118
sI16
I118
sI17
I113
sI18
I184
sI19
I163
sI20
I89
sI21
I155
sI22
I126
sI23
I228
sI24
I125
sI25
I50
sI26
I132
sI27
I142
sI28
I174
sI29
I109
sI30
I98
sI31
I162
sI32
I99
sI33
I60
sI34
I69
sI35
I137
sI36
I81
sI37
I52
sI38
I41
sI39
I55
sI40
I19
sI41
I146
sI42
I180
sI43
I115
sI44
I63
sI45
I123
sI46
I25
sI47
I57
sI48
I62
sI49
I21
sI50
I30
sI51
I67
sI52
I37
sI53
I43
sI54
I49
sI55
I31
sI56
I14
sI57
I17
sI58
I30
sI59
I42
sI60
I58
sI61
I15
sI62
I50
sI63
I54
sI64
I43
sI65
I106
sI66
I36
sI67
I118
sI68
I31
sI69
I44
sI70
I31
sI71
I89
sI72
I114
sI73
I37
sI74
I64
sI75
I50
sI76
I108
sI77
I55
sI78
I39
sI79
I37
sI80
I88
sI81
I22
sI82
I30
sI83
I36
sI84
I7
sI85
I35
sI86
I57
sI87
I57
sI88
I16
sI89
I28
sI90
I16
sI91
I26
sI92
I11
sI93
I26
sI94
I42
sI95
I11
sI96
I2
sI97
I32
sI98
I43
sI99
I31
ssstp335
a(g11
(tRp336
S'computation_placement'
p337
g11
(tRp338
S'service_budget'
p339
I1
sS'name'
p340
S'EDGE'
p341
sS'computation_budget'
p342
I1
ssS'workload'
p343
g11
(tRp344
S'n_contents'
p345
I100
sS'playback_rate'
p346
I10
sS'n_chunks'
p347
I100
sS'n_warmup'
p348
I0
sS'rate'
p349
F60
sS'n_measured'
p350
F18000
sS'alpha'
p351
F0.75
sS'n_services'
p352
I1
sS'seed'
p353
I0
sS'wndw_size'
p354
I10
sg340
S'STATIONARY'
p355
ssS'sched_policy'
p356
g11
(tRp357
g340
S'EDF'
p358
ssS'cache_policy'
p359
g11
(tRp360
g340
S'LRU'
p361
ssS'strategy'
p362
g11
(tRp363
g345
I100
sg346
I10
sS'advertisement_period'
p364
F10
sg340
S'IPFS'
p365
sg354
I10
sg347
I100
ssS'content_placement'
p366
g11
(tRp367
g340
S'UNIFORM'
p368
sg347
I100
ssS'cache_placement'
p369
g11
(tRp370
S'network_cache'
p371
F1
sS'cache_budget'
p372
I200
sg340
g341
ssS'desc'
p373
S'strategy: IPFS buffer size 10'
p374
sS'warmup_strategy'
p375
g11
(tRp376
g345
I100
sg346
I10
sg364
F10
sg340
g365
sg354
I10
sg347
I100
ssS'topology'
p377
g11
(tRp378
S'nrecv_per_edge'
p379
I10
sg340
S'TISCALI'
p380
ssg11
(tRp381
S'VIDEO_PLAYBACK'
p382
g11
(tRp383
S'BUFFER_RATIO'
p384
F0.10733333333333334
sS'CACHE_HIT_RATIO'
p385
F0.13065694366339267
sS'OVERHEAD'
p386
F6.6023715983375624
sS'BUFFERING_PER_CONTENT'
p387
g11
(tRp388
I1
I421
sI2
I516
sI3
I159
sI4
I269
sI5
I68
sI6
I37
sI7
I62
sI8
I65
sI9
I29
sI10
I29
sI11
I10
sI12
I8
sI13
I21
sI14
I13
sI15
I8
sI18
I2
sI19
I5
sI20
I63
sI21
I4
sI22
I5
sI23
I3
sI24
I1
sI29
I28
sI30
I33
sI32
I5
sI41
I11
sI42
I4
sI43
I7
sI44
I2
sI48
I3
sI49
I8
sI50
I2
sI51
I7
sI59
I1
sI70
I5
sI71
I3
sI72
I3
sI75
I3
sI76
I3
sI78
I3
sI82
I2
sI86
I1
ssstp389
atRp390
sb.