ccopy_reg
_reconstructor
p1
(cicarus.results.readwrite
ResultSet
p2
c__builtin__
object
p3
NtRp4
(dp5
S'attr'
p6
(dp7
sS'_results'
p8
ccollections
deque
p9
((lp10
(cicarus.util
Tree
p11
(tRp12
S'computation_placement'
p13
g11
(tRp14
S'service_budget'
p15
I1
sS'name'
p16
S'EDGE'
p17
sS'computation_budget'
p18
I1
ssS'workload'
p19
g11
(tRp20
S'n_contents'
p21
I100
sS'playback_rate'
p22
I10
sS'n_chunks'
p23
I200
sS'n_warmup'
p24
I0
sS'rate'
p25
F50
sS'n_measured'
p26
F15000
sS'alpha'
p27
F0.75
sS'n_services'
p28
I1
sS'seed'
p29
I0
sS'wndw_size'
p30
I10
sg16
S'STATIONARY'
p31
ssS'sched_policy'
p32
g11
(tRp33
g16
S'EDF'
p34
ssS'cache_policy'
p35
g11
(tRp36
g16
S'LRU'
p37
ssS'strategy'
p38
g11
(tRp39
g21
I100
sg22
I10
sS'advertisement_period'
p40
F5
sg23
I200
sS'load_balance_distance'
p41
I1
sg30
I15
sg16
S'NDN'
p42
ssS'content_placement'
p43
g11
(tRp44
g16
S'UNIFORM'
p45
sg23
I200
ssS'cache_placement'
p46
g11
(tRp47
S'network_cache'
p48
F1
sS'cache_budget'
p49
I400
sg16
g17
ssS'desc'
p50
S'strategy: NDN buffer size 15'
p51
sS'warmup_strategy'
p52
g11
(tRp53
g21
I100
sg22
I10
sg40
F5
sg16
g42
sg41
I1
sg30
I15
sg23
I200
ssS'topology'
p54
g11
(tRp55
S'nrecv_per_edge'
p56
I10
sg16
S'TISCALI'
p57
ssg11
(tRp58
S'VIDEO_PLAYBACK'
p59
g11
(tRp60
S'BUFFER_RATIO'
p61
F3.9693999999999998
sS'CACHE_HIT_RATIO'
p62
F0.79285636717477392
sS'OVERHEAD'
p63
F2.8226541216691836
sS'BUFFERING_PER_CONTENT'
p64
g11
(tRp65
I1
I7063
sI2
I4342
sI3
I3262
sI4
I2836
sI5
I2318
sI6
I2114
sI7
I2009
sI8
I1571
sI9
I1662
sI10
I1163
sI11
I1058
sI12
I901
sI13
I938
sI14
I1002
sI15
I757
sI16
I865
sI17
I794
sI18
I732
sI19
I651
sI20
I714
sI21
I782
sI22
I766
sI23
I603
sI24
I548
sI25
I490
sI26
I562
sI27
I414
sI28
I626
sI29
I475
sI30
I478
sI31
I421
sI32
I515
sI33
I377
sI34
I413
sI35
I282
sI36
I267
sI37
I395
sI38
I383
sI39
I336
sI40
I462
sI41
I371
sI42
I360
sI43
I272
sI44
I281
sI45
I240
sI46
I255
sI47
I345
sI48
I278
sI49
I309
sI50
I195
sI51
I262
sI52
I317
sI53
I247
sI54
I256
sI55
I194
sI56
I314
sI57
I308
sI58
I294
sI59
I186
sI60
I186
sI61
I297
sI62
I160
sI63
I190
sI64
I184
sI65
I141
sI66
I232
sI67
I349
sI68
I174
sI69
I218
sI70
I214
sI71
I170
sI72
I304
sI73
I241
sI74
I220
sI75
I214
sI76
I250
sI77
I230
sI78
I157
sI79
I223
sI80
I235
sI81
I166
sI82
I230
sI83
I176
sI84
I279
sI85
I179
sI86
I174
sI87
I221
sI88
I182
sI89
I101
sI90
I254
sI91
I228
sI92
I120
sI93
I106
sI94
I129
sI95
I90
sI96
I203
sI97
I199
sI98
I90
sI99
I194
ssstp66
a(g11
(tRp67
S'computation_placement'
p68
g11
(tRp69
S'service_budget'
p70
I1
sS'name'
p71
S'EDGE'
p72
sS'computation_budget'
p73
I1
ssS'workload'
p74
g11
(tRp75
S'n_contents'
p76
I100
sS'playback_rate'
p77
I10
sS'n_chunks'
p78
I200
sS'n_warmup'
p79
I0
sS'rate'
p80
F50
sS'n_measured'
p81
F15000
sS'alpha'
p82
F0.75
sS'n_services'
p83
I1
sS'seed'
p84
I0
sS'wndw_size'
p85
I10
sg71
S'STATIONARY'
p86
ssS'sched_policy'
p87
g11
(tRp88
g71
S'EDF'
p89
ssS'cache_policy'
p90
g11
(tRp91
g71
S'LRU'
p92
ssS'strategy'
p93
g11
(tRp94
g76
I100
sg77
I10
sS'advertisement_period'
p95
F5
sg78
I200
sS'load_balance_distance'
p96
I1
sg85
I20
sg71
S'NDN'
p97
ssS'content_placement'
p98
g11
(tRp99
g71
S'UNIFORM'
p100
sg78
I200
ssS'cache_placement'
p101
g11
(tRp102
S'network_cache'
p103
F1
sS'cache_budget'
p104
I400
sg71
g72
ssS'desc'
p105
S'strategy: NDN buffer size 20'
p106
sS'warmup_strategy'
p107
g11
(tRp108
g76
I100
sg77
I10
sg95
F5
sg71
g97
sg96
I1
sg85
I20
sg78
I200
ssS'topology'
p109
g11
(tRp110
S'nrecv_per_edge'
p111
I10
sg71
S'TISCALI'
p112
ssg11
(tRp113
S'VIDEO_PLAYBACK'
p114
g11
(tRp115
S'BUFFER_RATIO'
p116
F2.5518666666666667
sS'CACHE_HIT_RATIO'
p117
F0.80534675593845217
sS'OVERHEAD'
p118
F2.7971550189909489
sS'BUFFERING_PER_CONTENT'
p119
g11
(tRp120
I1
I4499
sI2
I2692
sI3
I1967
sI4
I1866
sI5
I1532
sI6
I1149
sI7
I1415
sI8
I963
sI9
I848
sI10
I859
sI11
I770
sI12
I687
sI13
I580
sI14
I519
sI15
I625
sI16
I526
sI17
I560
sI18
I499
sI19
I307
sI20
I471
sI21
I345
sI22
I445
sI23
I409
sI24
I321
sI25
I356
sI26
I353
sI27
I426
sI28
I388
sI29
I297
sI30
I349
sI31
I376
sI32
I277
sI33
I226
sI34
I205
sI35
I250
sI36
I160
sI37
I275
sI38
I269
sI39
I167
sI40
I193
sI41
I247
sI42
I275
sI43
I238
sI44
I188
sI45
I188
sI46
I221
sI47
I168
sI48
I232
sI49
I196
sI50
I121
sI51
I113
sI52
I186
sI53
I213
sI54
I187
sI55
I140
sI56
I248
sI57
I155
sI58
I180
sI59
I157
sI60
I195
sI61
I111
sI62
I209
sI63
I148
sI64
I149
sI65
I237
sI66
I122
sI67
I190
sI68
I142
sI69
I130
sI70
I106
sI71
I97
sI72
I189
sI73
I153
sI74
I131
sI75
I165
sI76
I140
sI77
I132
sI78
I153
sI79
I153
sI80
I94
sI81
I108
sI82
I98
sI83
I102
sI84
I126
sI85
I86
sI86
I76
sI87
I106
sI88
I64
sI89
I70
sI90
I125
sI91
I166
sI92
I178
sI93
I111
sI94
I75
sI95
I89
sI96
I117
sI97
I96
sI98
I144
sI99
I121
ssstp121
a(g11
(tRp122
S'computation_placement'
p123
g11
(tRp124
S'service_budget'
p125
I1
sS'name'
p126
S'EDGE'
p127
sS'computation_budget'
p128
I1
ssS'workload'
p129
g11
(tRp130
S'n_contents'
p131
I100
sS'playback_rate'
p132
I10
sS'n_chunks'
p133
I200
sS'n_warmup'
p134
I0
sS'rate'
p135
F50
sS'n_measured'
p136
F15000
sS'alpha'
p137
F0.75
sS'n_services'
p138
I1
sS'seed'
p139
I0
sS'wndw_size'
p140
I10
sg126
S'STATIONARY'
p141
ssS'sched_policy'
p142
g11
(tRp143
g126
S'EDF'
p144
ssS'cache_policy'
p145
g11
(tRp146
g126
S'LRU'
p147
ssS'strategy'
p148
g11
(tRp149
g131
I100
sg132
I10
sS'advertisement_period'
p150
F5
sg133
I200
sS'load_balance_distance'
p151
I1
sg140
I10
sg126
S'NDN'
p152
ssS'content_placement'
p153
g11
(tRp154
g126
S'UNIFORM'
p155
sg133
I200
ssS'cache_placement'
p156
g11
(tRp157
S'network_cache'
p158
F1
sS'cache_budget'
p159
I400
sg126
g127
ssS'desc'
p160
S'strategy: NDN buffer size 10'
p161
sS'warmup_strategy'
p162
g11
(tRp163
g131
I100
sg132
I10
sg150
F5
sg126
g152
sg151
I1
sg140
I10
sg133
I200
ssS'topology'
p164
g11
(tRp165
S'nrecv_per_edge'
p166
I10
sg126
S'TISCALI'
p167
ssg11
(tRp168
S'VIDEO_PLAYBACK'
p169
g11
(tRp170
S'BUFFER_RATIO'
p171
F4.7160000000000002
sS'CACHE_HIT_RATIO'
p172
F0.80774849379647606
sS'OVERHEAD'
p173
F2.8076490577865267
sS'BUFFERING_PER_CONTENT'
p174
g11
(tRp175
I1
I8076
sI2
I5619
sI3
I4424
sI4
I3277
sI5
I2550
sI6
I2036
sI7
I2945
sI8
I1976
sI9
I1350
sI10
I1270
sI11
I1415
sI12
I1533
sI13
I1251
sI14
I961
sI15
I728
sI16
I907
sI17
I1282
sI18
I753
sI19
I1117
sI20
I592
sI21
I708
sI22
I706
sI23
I725
sI24
I630
sI25
I715
sI26
I711
sI27
I484
sI28
I733
sI29
I449
sI30
I566
sI31
I505
sI32
I441
sI33
I520
sI34
I283
sI35
I404
sI36
I389
sI37
I483
sI38
I529
sI39
I439
sI40
I357
sI41
I497
sI42
I667
sI43
I337
sI44
I265
sI45
I396
sI46
I387
sI47
I347
sI48
I354
sI49
I266
sI50
I284
sI51
I358
sI52
I431
sI53
I417
sI54
I373
sI55
I372
sI56
I308
sI57
I325
sI58
I335
sI59
I242
sI60
I217
sI61
I326
sI62
I242
sI63
I159
sI64
I237
sI65
I276
sI66
I196
sI67
I248
sI68
I259
sI69
I290
sI70
I316
sI71
I173
sI72
I326
sI73
I265
sI74
I280
sI75
I262
sI76
I319
sI77
I214
sI78
I115
sI79
I171
sI80
I244
sI81
I288
sI82
I157
sI83
I195
sI84
I289
sI85
I99
sI86
I194
sI87
I193
sI88
I231
sI89
I194
sI90
I206
sI91
I136
sI92
I170
sI93
I262
sI94
I178
sI95
I103
sI96
I320
sI97
I193
sI98
I152
sI99
I245
ssstp176
a(g11
(tRp177
S'computation_placement'
p178
g11
(tRp179
S'service_budget'
p180
I1
sS'name'
p181
S'EDGE'
p182
sS'computation_budget'
p183
I1
ssS'workload'
p184
g11
(tRp185
S'n_contents'
p186
I100
sS'playback_rate'
p187
I10
sS'n_chunks'
p188
I200
sS'n_warmup'
p189
I0
sS'rate'
p190
F50
sS'n_measured'
p191
F15000
sS'alpha'
p192
F0.75
sS'n_services'
p193
I1
sS'seed'
p194
I0
sS'wndw_size'
p195
I10
sg181
S'STATIONARY'
p196
ssS'sched_policy'
p197
g11
(tRp198
g181
S'EDF'
p199
ssS'cache_policy'
p200
g11
(tRp201
g181
S'LRU'
p202
ssS'strategy'
p203
g11
(tRp204
g187
I10
sg195
I10
sg181
S'OPTIMAL'
p205
sg188
I200
ssS'content_placement'
p206
g11
(tRp207
g181
S'UNIFORM'
p208
sg188
I200
ssS'cache_placement'
p209
g11
(tRp210
S'network_cache'
p211
F1
sS'cache_budget'
p212
I400
sg181
g182
ssS'desc'
p213
S'strategy: OPTIMAL buffer size 10'
p214
sS'warmup_strategy'
p215
g11
(tRp216
g188
I200
sg187
I10
sg181
g205
sg195
I10
ssS'topology'
p217
g11
(tRp218
S'nrecv_per_edge'
p219
I10
sg181
S'TISCALI'
p220
ssg11
(tRp221
S'VIDEO_PLAYBACK'
p222
g11
(tRp223
S'BUFFER_RATIO'
p224
F0.032533333333333331
sS'CACHE_HIT_RATIO'
p225
F0.97945233333333337
sS'OVERHEAD'
p226
F3.6551366666666665
sS'BUFFERING_PER_CONTENT'
p227
g11
(tRp228
I1
I19
sI2
I14
sI3
I20
sI4
I7
sI5
I19
sI6
I18
sI7
I11
sI8
I6
sI9
I2
sI10
I6
sI11
I6
sI12
I2
sI13
I8
sI14
I1
sI15
I1
sI16
I2
sI19
I8
sI20
I6
sI21
I1
sI22
I4
sI24
I15
sI25
I3
sI26
I10
sI27
I21
sI28
I1
sI29
I23
sI30
I11
sI31
I5
sI32
I2
sI33
I1
sI37
I13
sI39
I1
sI40
I2
sI42
I1
sI43
I4
sI47
I2
sI48
I1
sI49
I1
sI50
I5
sI52
I2
sI53
I4
sI55
I2
sI56
I4
sI57
I10
sI58
I4
sI60
I10
sI63
I3
sI65
I3
sI66
I24
sI67
I1
sI69
I8
sI72
I1
sI74
I26
sI76
I9
sI77
I6
sI79
I5
sI80
I5
sI81
I12
sI83
I13
sI85
I1
sI86
I1
sI90
I18
sI91
I5
sI92
I2
sI93
I3
sI94
I2
sI95
I9
sI96
I1
sI97
I2
sI98
I9
ssstp229
a(g11
(tRp230
S'computation_placement'
p231
g11
(tRp232
S'service_budget'
p233
I1
sS'name'
p234
S'EDGE'
p235
sS'computation_budget'
p236
I1
ssS'workload'
p237
g11
(tRp238
S'n_contents'
p239
I100
sS'playback_rate'
p240
I10
sS'n_chunks'
p241
I200
sS'n_warmup'
p242
I0
sS'rate'
p243
F50
sS'n_measured'
p244
F15000
sS'alpha'
p245
F0.75
sS'n_services'
p246
I1
sS'seed'
p247
I0
sS'wndw_size'
p248
I10
sg234
S'STATIONARY'
p249
ssS'sched_policy'
p250
g11
(tRp251
g234
S'EDF'
p252
ssS'cache_policy'
p253
g11
(tRp254
g234
S'LRU'
p255
ssS'strategy'
p256
g11
(tRp257
g240
I10
sg248
I15
sg234
S'OPTIMAL'
p258
sg241
I200
ssS'content_placement'
p259
g11
(tRp260
g234
S'UNIFORM'
p261
sg241
I200
ssS'cache_placement'
p262
g11
(tRp263
S'network_cache'
p264
F1
sS'cache_budget'
p265
I400
sg234
g235
ssS'desc'
p266
S'strategy: OPTIMAL buffer size 15'
p267
sS'warmup_strategy'
p268
g11
(tRp269
g241
I200
sg240
I10
sg234
g258
sg248
I15
ssS'topology'
p270
g11
(tRp271
S'nrecv_per_edge'
p272
I10
sg234
S'TISCALI'
p273
ssg11
(tRp274
S'VIDEO_PLAYBACK'
p275
g11
(tRp276
S'BUFFER_RATIO'
p277
F0.017466666666666665
sS'CACHE_HIT_RATIO'
p278
F0.98161933333333329
sS'OVERHEAD'
p279
F3.6572306666666665
sS'BUFFERING_PER_CONTENT'
p280
g11
(tRp281
I1
I17
sI2
I1
sI3
I3
sI4
I6
sI5
I2
sI6
I4
sI7
I9
sI8
I21
sI9
I2
sI10
I1
sI11
I4
sI12
I3
sI13
I3
sI15
I3
sI16
I3
sI17
I10
sI18
I4
sI20
I12
sI22
I3
sI23
I5
sI24
I5
sI26
I1
sI31
I1
sI33
I10
sI34
I5
sI35
I7
sI36
I6
sI38
I3
sI39
I5
sI43
I3
sI45
I1
sI50
I3
sI54
I7
sI59
I10
sI60
I11
sI61
I8
sI62
I4
sI66
I1
sI70
I4
sI73
I2
sI74
I3
sI76
I10
sI77
I5
sI79
I3
sI83
I10
sI87
I7
sI88
I4
sI90
I1
sI91
I1
sI92
I2
sI93
I1
sI94
I1
sI96
I1
ssstp282
a(g11
(tRp283
S'computation_placement'
p284
g11
(tRp285
S'service_budget'
p286
I1
sS'name'
p287
S'EDGE'
p288
sS'computation_budget'
p289
I1
ssS'workload'
p290
g11
(tRp291
S'n_contents'
p292
I100
sS'playback_rate'
p293
I10
sS'n_chunks'
p294
I200
sS'n_warmup'
p295
I0
sS'rate'
p296
F50
sS'n_measured'
p297
F15000
sS'alpha'
p298
F0.75
sS'n_services'
p299
I1
sS'seed'
p300
I0
sS'wndw_size'
p301
I10
sg287
S'STATIONARY'
p302
ssS'sched_policy'
p303
g11
(tRp304
g287
S'EDF'
p305
ssS'cache_policy'
p306
g11
(tRp307
g287
S'LRU'
p308
ssS'strategy'
p309
g11
(tRp310
g293
I10
sg301
I20
sg287
S'OPTIMAL'
p311
sg294
I200
ssS'content_placement'
p312
g11
(tRp313
g287
S'UNIFORM'
p314
sg294
I200
ssS'cache_placement'
p315
g11
(tRp316
S'network_cache'
p317
F1
sS'cache_budget'
p318
I400
sg287
g288
ssS'desc'
p319
S'strategy: OPTIMAL buffer size 20'
p320
sS'warmup_strategy'
p321
g11
(tRp322
g294
I200
sg293
I10
sg287
g311
sg301
I20
ssS'topology'
p323
g11
(tRp324
S'nrecv_per_edge'
p325
I10
sg287
S'TISCALI'
p326
ssg11
(tRp327
S'VIDEO_PLAYBACK'
p328
g11
(tRp329
S'BUFFER_RATIO'
p330
F0.011466666666666667
sS'CACHE_HIT_RATIO'
p331
F0.98253433333333329
sS'OVERHEAD'
p332
F3.761565
sS'BUFFERING_PER_CONTENT'
p333
g11
(tRp334
I1
I12
sI2
I9
sI3
I1
sI4
I4
sI5
I5
sI6
I3
sI7
I6
sI9
I6
sI10
I1
sI12
I1
sI14
I4
sI16
I2
sI17
I2
sI18
I2
sI19
I1
sI20
I3
sI21
I3
sI22
I1
sI24
I2
sI25
I7
sI29
I1
sI31
I4
sI33
I4
sI35
I2
sI43
I8
sI47
I1
sI50
I3
sI51
I4
sI53
I1
sI54
I2
sI55
I2
sI60
I1
sI61
I4
sI62
I2
sI65
I1
sI66
I3
sI67
I1
sI69
I3
sI70
I2
sI71
I10
sI73
I2
sI75
I1
sI76
I6
sI78
I1
sI85
I2
sI90
I2
sI91
I2
sI92
I8
sI94
I1
sI96
I1
sI97
I4
sI98
I3
sI99
I5
ssstp335
a(g11
(tRp336
S'computation_placement'
p337
g11
(tRp338
S'service_budget'
p339
I1
sS'name'
p340
S'EDGE'
p341
sS'computation_budget'
p342
I1
ssS'workload'
p343
g11
(tRp344
S'n_contents'
p345
I100
sS'playback_rate'
p346
I10
sS'n_chunks'
p347
I200
sS'n_warmup'
p348
I0
sS'rate'
p349
F50
sS'n_measured'
p350
F15000
sS'alpha'
p351
F0.75
sS'n_services'
p352
I1
sS'seed'
p353
I0
sS'wndw_size'
p354
I10
sg340
S'STATIONARY'
p355
ssS'sched_policy'
p356
g11
(tRp357
g340
S'EDF'
p358
ssS'cache_policy'
p359
g11
(tRp360
g340
S'LRU'
p361
ssS'strategy'
p362
g11
(tRp363
g346
I10
sg354
I25
sg340
S'OPTIMAL'
p364
sg347
I200
ssS'content_placement'
p365
g11
(tRp366
g340
S'UNIFORM'
p367
sg347
I200
ssS'cache_placement'
p368
g11
(tRp369
S'network_cache'
p370
F1
sS'cache_budget'
p371
I400
sg340
g341
ssS'desc'
p372
S'strategy: OPTIMAL buffer size 25'
p373
sS'warmup_strategy'
p374
g11
(tRp375
g347
I200
sg346
I10
sg340
g364
sg354
I25
ssS'topology'
p376
g11
(tRp377
S'nrecv_per_edge'
p378
I10
sg340
S'TISCALI'
p379
ssg11
(tRp380
S'VIDEO_PLAYBACK'
p381
g11
(tRp382
S'BUFFER_RATIO'
p383
F0.0085333333333333337
sS'CACHE_HIT_RATIO'
p384
F0.98443599999999998
sS'OVERHEAD'
p385
F3.811445
sS'BUFFERING_PER_CONTENT'
p386
g11
(tRp387
I1
I11
sI2
I15
sI3
I5
sI4
I2
sI5
I1
sI6
I4
sI7
I3
sI8
I1
sI9
I6
sI10
I4
sI11
I2
sI12
I4
sI13
I3
sI15
I4
sI16
I1
sI17
I2
sI19
I1
sI20
I1
sI24
I1
sI27
I3
sI31
I1
sI32
I2
sI36
I3
sI40
I4
sI43
I3
sI46
I3
sI51
I1
sI52
I4
sI54
I5
sI56
I2
sI61
I4
sI65
I1
sI68
I2
sI69
I2
sI71
I1
sI78
I1
sI82
I3
sI83
I3
sI84
I1
sI86
I1
sI89
I2
sI90
I1
sI91
I1
sI95
I1
sI96
I1
sI99
I1
ssstp388
a(g11
(tRp389
S'computation_placement'
p390
g11
(tRp391
S'service_budget'
p392
I1
sS'name'
p393
S'EDGE'
p394
sS'computation_budget'
p395
I1
ssS'workload'
p396
g11
(tRp397
S'n_contents'
p398
I100
sS'playback_rate'
p399
I10
sS'n_chunks'
p400
I200
sS'n_warmup'
p401
I0
sS'rate'
p402
F50
sS'n_measured'
p403
F15000
sS'alpha'
p404
F0.75
sS'n_services'
p405
I1
sS'seed'
p406
I0
sS'wndw_size'
p407
I10
sg393
S'STATIONARY'
p408
ssS'sched_policy'
p409
g11
(tRp410
g393
S'EDF'
p411
ssS'cache_policy'
p412
g11
(tRp413
g393
S'LRU'
p414
ssS'strategy'
p415
g11
(tRp416
g399
I10
sg407
I30
sg393
S'OPTIMAL'
p417
sg400
I200
ssS'content_placement'
p418
g11
(tRp419
g393
S'UNIFORM'
p420
sg400
I200
ssS'cache_placement'
p421
g11
(tRp422
S'network_cache'
p423
F1
sS'cache_budget'
p424
I400
sg393
g394
ssS'desc'
p425
S'strategy: OPTIMAL buffer size 30'
p426
sS'warmup_strategy'
p427
g11
(tRp428
g400
I200
sg399
I10
sg393
g417
sg407
I30
ssS'topology'
p429
g11
(tRp430
S'nrecv_per_edge'
p431
I10
sg393
S'TISCALI'
p432
ssg11
(tRp433
S'VIDEO_PLAYBACK'
p434
g11
(tRp435
S'BUFFER_RATIO'
p436
F0.0071333333333333335
sS'CACHE_HIT_RATIO'
p437
F0.98567133333333334
sS'OVERHEAD'
p438
F3.9014203333333333
sS'BUFFERING_PER_CONTENT'
p439
g11
(tRp440
I1
I21
sI2
I4
sI3
I9
sI4
I4
sI6
I1
sI7
I3
sI9
I1
sI10
I7
sI11
I5
sI17
I1
sI19
I1
sI20
I1
sI22
I4
sI27
I2
sI34
I3
sI37
I5
sI41
I1
sI48
I1
sI49
I2
sI54
I1
sI61
I1
sI63
I1
sI71
I1
sI73
I4
sI75
I1
sI76
I4
sI77
I1
sI78
I3
sI81
I2
sI83
I3
sI93
I6
sI98
I2
sI99
I1
ssstp441
a(g11
(tRp442
S'computation_placement'
p443
g11
(tRp444
S'service_budget'
p445
I1
sS'name'
p446
S'EDGE'
p447
sS'computation_budget'
p448
I1
ssS'workload'
p449
g11
(tRp450
S'n_contents'
p451
I100
sS'playback_rate'
p452
I10
sS'n_chunks'
p453
I200
sS'n_warmup'
p454
I0
sS'rate'
p455
F50
sS'n_measured'
p456
F15000
sS'alpha'
p457
F0.75
sS'n_services'
p458
I1
sS'seed'
p459
I0
sS'wndw_size'
p460
I10
sg446
S'STATIONARY'
p461
ssS'sched_policy'
p462
g11
(tRp463
g446
S'EDF'
p464
ssS'cache_policy'
p465
g11
(tRp466
g446
S'LRU'
p467
ssS'strategy'
p468
g11
(tRp469
g451
I100
sg452
I10
sS'advertisement_period'
p470
F5
sg453
I200
sS'load_balance_distance'
p471
I1
sg460
I25
sg446
S'NDN'
p472
ssS'content_placement'
p473
g11
(tRp474
g446
S'UNIFORM'
p475
sg453
I200
ssS'cache_placement'
p476
g11
(tRp477
S'network_cache'
p478
F1
sS'cache_budget'
p479
I400
sg446
g447
ssS'desc'
p480
S'strategy: NDN buffer size 25'
p481
sS'warmup_strategy'
p482
g11
(tRp483
g451
I100
sg452
I10
sg470
F5
sg446
g472
sg471
I1
sg460
I25
sg453
I200
ssS'topology'
p484
g11
(tRp485
S'nrecv_per_edge'
p486
I10
sg446
S'TISCALI'
p487
ssg11
(tRp488
S'VIDEO_PLAYBACK'
p489
g11
(tRp490
S'BUFFER_RATIO'
p491
F1.6593333333333333
sS'CACHE_HIT_RATIO'
p492
F0.81370198701989083
sS'OVERHEAD'
p493
F2.8027868014798827
sS'BUFFERING_PER_CONTENT'
p494
g11
(tRp495
I1
I2786
sI2
I1734
sI3
I1529
sI4
I1042
sI5
I966
sI6
I861
sI7
I910
sI8
I649
sI9
I633
sI10
I490
sI11
I464
sI12
I413
sI13
I355
sI14
I440
sI15
I356
sI16
I398
sI17
I379
sI18
I268
sI19
I299
sI20
I246
sI21
I234
sI22
I305
sI23
I274
sI24
I275
sI25
I271
sI26
I222
sI27
I217
sI28
I230
sI29
I229
sI30
I215
sI31
I214
sI32
I189
sI33
I178
sI34
I129
sI35
I134
sI36
I179
sI37
I131
sI38
I198
sI39
I133
sI40
I145
sI41
I167
sI42
I100
sI43
I173
sI44
I172
sI45
I147
sI46
I132
sI47
I131
sI48
I119
sI49
I103
sI50
I77
sI51
I160
sI52
I74
sI53
I98
sI54
I156
sI55
I117
sI56
I124
sI57
I141
sI58
I84
sI59
I77
sI60
I117
sI61
I100
sI62
I77
sI63
I78
sI64
I106
sI65
I116
sI66
I90
sI67
I122
sI68
I88
sI69
I75
sI70
I83
sI71
I31
sI72
I109
sI73
I64
sI74
I106
sI75
I76
sI76
I71
sI77
I124
sI78
I73
sI79
I111
sI80
I91
sI81
I98
sI82
I85
sI83
I65
sI84
I110
sI85
I101
sI86
I41
sI87
I55
sI88
I55
sI89
I48
sI90
I65
sI91
I62
sI92
I16
sI93
I46
sI94
I45
sI95
I86
sI96
I84
sI97
I65
sI98
I106
sI99
I77
ssstp496
a(g11
(tRp497
S'computation_placement'
p498
g11
(tRp499
S'service_budget'
p500
I1
sS'name'
p501
S'EDGE'
p502
sS'computation_budget'
p503
I1
ssS'workload'
p504
g11
(tRp505
S'n_contents'
p506
I100
sS'playback_rate'
p507
I10
sS'n_chunks'
p508
I200
sS'n_warmup'
p509
I0
sS'rate'
p510
F50
sS'n_measured'
p511
F15000
sS'alpha'
p512
F0.75
sS'n_services'
p513
I1
sS'seed'
p514
I0
sS'wndw_size'
p515
I10
sg501
S'STATIONARY'
p516
ssS'sched_policy'
p517
g11
(tRp518
g501
S'EDF'
p519
ssS'cache_policy'
p520
g11
(tRp521
g501
S'LRU'
p522
ssS'strategy'
p523
g11
(tRp524
g506
I100
sg507
I10
sS'advertisement_period'
p525
F5
sg508
I200
sS'load_balance_distance'
p526
I1
sg515
I30
sg501
S'NDN'
p527
ssS'content_placement'
p528
g11
(tRp529
g501
S'UNIFORM'
p530
sg508
I200
ssS'cache_placement'
p531
g11
(tRp532
S'network_cache'
p533
F1
sS'cache_budget'
p534
I400
sg501
g502
ssS'desc'
p535
S'strategy: NDN buffer size 30'
p536
sS'warmup_strategy'
p537
g11
(tRp538
g506
I100
sg507
I10
sg525
F5
sg501
g527
sg526
I1
sg515
I30
sg508
I200
ssS'topology'
p539
g11
(tRp540
S'nrecv_per_edge'
p541
I10
sg501
S'TISCALI'
p542
ssg11
(tRp543
S'VIDEO_PLAYBACK'
p544
g11
(tRp545
S'BUFFER_RATIO'
p546
F1.1640666666666666
sS'CACHE_HIT_RATIO'
p547
F0.81466310157724031
sS'OVERHEAD'
p548
F2.7699872671364876
sS'BUFFERING_PER_CONTENT'
p549
g11
(tRp550
I1
I2226
sI2
I1374
sI3
I986
sI4
I873
sI5
I718
sI6
I601
sI7
I580
sI8
I410
sI9
I373
sI10
I394
sI11
I348
sI12
I303
sI13
I263
sI14
I269
sI15
I198
sI16
I190
sI17
I247
sI18
I222
sI19
I175
sI20
I180
sI21
I201
sI22
I206
sI23
I145
sI24
I175
sI25
I142
sI26
I109
sI27
I162
sI28
I132
sI29
I105
sI30
I144
sI31
I109
sI32
I173
sI33
I101
sI34
I97
sI35
I106
sI36
I107
sI37
I101
sI38
I123
sI39
I91
sI40
I81
sI41
I71
sI42
I90
sI43
I126
sI44
I81
sI45
I113
sI46
I92
sI47
I98
sI48
I95
sI49
I116
sI50
I70
sI51
I63
sI52
I102
sI53
I85
sI54
I73
sI55
I64
sI56
I84
sI57
I89
sI58
I90
sI59
I49
sI60
I67
sI61
I59
sI62
I88
sI63
I71
sI64
I47
sI65
I49
sI66
I83
sI67
I49
sI68
I54
sI69
I54
sI70
I57
sI71
I73
sI72
I74
sI73
I82
sI74
I45
sI75
I55
sI76
I51
sI77
I95
sI78
I54
sI79
I55
sI80
I58
sI81
I65
sI82
I66
sI83
I54
sI84
I48
sI85
I39
sI86
I49
sI87
I55
sI88
I48
sI89
I68
sI90
I41
sI91
I53
sI92
I54
sI93
I53
sI94
I36
sI95
I41
sI96
I28
sI97
I52
sI98
I38
sI99
I62
ssstp551
a(g11
(tRp552
S'computation_placement'
p553
g11
(tRp554
S'service_budget'
p555
I1
sS'name'
p556
S'EDGE'
p557
sS'computation_budget'
p558
I1
ssS'workload'
p559
g11
(tRp560
S'n_contents'
p561
I100
sS'playback_rate'
p562
I10
sS'n_chunks'
p563
I200
sS'n_warmup'
p564
I0
sS'rate'
p565
F50
sS'n_measured'
p566
F15000
sS'alpha'
p567
F0.75
sS'n_services'
p568
I1
sS'seed'
p569
I0
sS'wndw_size'
p570
I10
sg556
S'STATIONARY'
p571
ssS'sched_policy'
p572
g11
(tRp573
g556
S'EDF'
p574
ssS'cache_policy'
p575
g11
(tRp576
g556
S'LRU'
p577
ssS'strategy'
p578
g11
(tRp579
g561
I100
sg562
I10
sS'advertisement_period'
p580
F5
sg556
S'NDN_MEASUREMENT'
p581
sg570
I10
sg563
I200
ssS'content_placement'
p582
g11
(tRp583
g556
S'UNIFORM'
p584
sg563
I200
ssS'cache_placement'
p585
g11
(tRp586
S'network_cache'
p587
F1
sS'cache_budget'
p588
I400
sg556
g557
ssS'desc'
p589
S'strategy: NDN_MEASUREMENT buffer size 10'
p590
sS'warmup_strategy'
p591
g11
(tRp592
g561
I100
sg562
I10
sg580
F5
sg556
g581
sg570
I10
sg563
I200
ssS'topology'
p593
g11
(tRp594
S'nrecv_per_edge'
p595
I10
sg556
S'TISCALI'
p596
ssg11
(tRp597
S'VIDEO_PLAYBACK'
p598
g11
(tRp599
S'BUFFER_RATIO'
p600
F4.5750666666666664
sS'CACHE_HIT_RATIO'
p601
F0.77890129660897145
sS'OVERHEAD'
p602
F6.3461407144819564
sS'BUFFERING_PER_CONTENT'
p603
g11
(tRp604
I1
I4889
sI2
I3806
sI3
I3354
sI4
I2556
sI5
I2480
sI6
I2442
sI7
I2003
sI8
I1704
sI9
I1719
sI10
I1677
sI11
I1658
sI12
I1497
sI13
I1145
sI14
I1165
sI15
I1316
sI16
I1016
sI17
I1023
sI18
I1090
sI19
I1028
sI20
I637
sI21
I883
sI22
I986
sI23
I988
sI24
I838
sI25
I735
sI26
I831
sI27
I647
sI28
I626
sI29
I759
sI30
I582
sI31
I661
sI32
I802
sI33
I724
sI34
I555
sI35
I484
sI36
I498
sI37
I427
sI38
I595
sI39
I547
sI40
I469
sI41
I449
sI42
I475
sI43
I417
sI44
I550
sI45
I533
sI46
I444
sI47
I462
sI48
I300
sI49
I350
sI50
I434
sI51
I396
sI52
I339
sI53
I286
sI54
I363
sI55
I458
sI56
I349
sI57
I359
sI58
I271
sI59
I368
sI60
I252
sI61
I331
sI62
I237
sI63
I352
sI64
I269
sI65
I244
sI66
I363
sI67
I299
sI68
I201
sI69
I337
sI70
I212
sI71
I192
sI72
I168
sI73
I304
sI74
I316
sI75
I225
sI76
I231
sI77
I224
sI78
I288
sI79
I157
sI80
I170
sI81
I230
sI82
I249
sI83
I178
sI84
I181
sI85
I306
sI86
I183
sI87
I223
sI88
I157
sI89
I261
sI90
I168
sI91
I148
sI92
I184
sI93
I243
sI94
I249
sI95
I146
sI96
I245
sI97
I118
sI98
I160
sI99
I180
ssstp605
a(g11
(tRp606
S'computation_placement'
p607
g11
(tRp608
S'service_budget'
p609
I1
sS'name'
p610
S'EDGE'
p611
sS'computation_budget'
p612
I1
ssS'workload'
p613
g11
(tRp614
S'n_contents'
p615
I100
sS'playback_rate'
p616
I10
sS'n_chunks'
p617
I200
sS'n_warmup'
p618
I0
sS'rate'
p619
F50
sS'n_measured'
p620
F15000
sS'alpha'
p621
F0.75
sS'n_services'
p622
I1
sS'seed'
p623
I0
sS'wndw_size'
p624
I10
sg610
S'STATIONARY'
p625
ssS'sched_policy'
p626
g11
(tRp627
g610
S'EDF'
p628
ssS'cache_policy'
p629
g11
(tRp630
g610
S'LRU'
p631
ssS'strategy'
p632
g11
(tRp633
g615
I100
sg616
I10
sS'advertisement_period'
p634
F5
sg610
S'IPFS'
p635
sg624
I10
sg617
I200
ssS'content_placement'
p636
g11
(tRp637
g610
S'UNIFORM'
p638
sg617
I200
ssS'cache_placement'
p639
g11
(tRp640
S'network_cache'
p641
F1
sS'cache_budget'
p642
I400
sg610
g611
ssS'desc'
p643
S'strategy: IPFS buffer size 10'
p644
sS'warmup_strategy'
p645
g11
(tRp646
g615
I100
sg616
I10
sg634
F5
sg610
g635
sg624
I10
sg617
I200
ssS'topology'
p647
g11
(tRp648
S'nrecv_per_edge'
p649
I10
sg610
S'TISCALI'
p650
ssg11
(tRp651
S'VIDEO_PLAYBACK'
p652
g11
(tRp653
S'BUFFER_RATIO'
p654
F0.034799999999999998
sS'CACHE_HIT_RATIO'
p655
F0.26060299999999997
sS'OVERHEAD'
p656
F7.1126866666666668
sS'BUFFERING_PER_CONTENT'
p657
g11
(tRp658
I1
I29
sI2
I25
sI3
I10
sI4
I12
sI5
I8
sI6
I23
sI7
I28
sI8
I15
sI9
I3
sI10
I6
sI11
I4
sI12
I3
sI13
I8
sI14
I6
sI15
I11
sI16
I10
sI17
I2
sI18
I4
sI19
I5
sI20
I1
sI21
I5
sI22
I2
sI23
I7
sI24
I6
sI25
I9
sI26
I8
sI27
I4
sI28
I2
sI29
I11
sI30
I6
sI31
I1
sI32
I8
sI34
I3
sI35
I9
sI36
I3
sI37
I4
sI38
I5
sI39
I2
sI40
I4
sI41
I3
sI42
I5
sI43
I8
sI44
I3
sI45
I5
sI46
I4
sI48
I7
sI49
I2
sI50
I4
sI51
I2
sI54
I3
sI55
I3
sI57
I15
sI59
I1
sI60
I10
sI61
I3
sI62
I5
sI63
I8
sI64
I2
sI65
I4
sI66
I4
sI67
I8
sI68
I4
sI69
I1
sI70
I7
sI71
I8
sI72
I1
sI75
I5
sI76
I2
sI77
I2
sI78
I3
sI79
I5
sI80
I4
sI81
I8
sI82
I1
sI84
I8
sI85
I5
sI86
I5
sI87
I3
sI89
I4
sI90
I4
sI92
I11
sI93
I1
sI96
I2
sI97
I5
sI98
I1
sI99
I1
ssstp659
a(g11
(tRp660
S'computation_placement'
p661
g11
(tRp662
S'service_budget'
p663
I1
sS'name'
p664
S'EDGE'
p665
sS'computation_budget'
p666
I1
ssS'workload'
p667
g11
(tRp668
S'n_contents'
p669
I100
sS'playback_rate'
p670
I10
sS'n_chunks'
p671
I200
sS'n_warmup'
p672
I0
sS'rate'
p673
F50
sS'n_measured'
p674
F15000
sS'alpha'
p675
F0.75
sS'n_services'
p676
I1
sS'seed'
p677
I0
sS'wndw_size'
p678
I10
sg664
S'STATIONARY'
p679
ssS'sched_policy'
p680
g11
(tRp681
g664
S'EDF'
p682
ssS'cache_policy'
p683
g11
(tRp684
g664
S'LRU'
p685
ssS'strategy'
p686
g11
(tRp687
g669
I100
sg670
I10
sS'advertisement_period'
p688
F5
sg664
S'NDN_MEASUREMENT'
p689
sg678
I15
sg671
I200
ssS'content_placement'
p690
g11
(tRp691
g664
S'UNIFORM'
p692
sg671
I200
ssS'cache_placement'
p693
g11
(tRp694
S'network_cache'
p695
F1
sS'cache_budget'
p696
I400
sg664
g665
ssS'desc'
p697
S'strategy: NDN_MEASUREMENT buffer size 15'
p698
sS'warmup_strategy'
p699
g11
(tRp700
g669
I100
sg670
I10
sg688
F5
sg664
g689
sg678
I15
sg671
I200
ssS'topology'
p701
g11
(tRp702
S'nrecv_per_edge'
p703
I10
sg664
S'TISCALI'
p704
ssg11
(tRp705
S'VIDEO_PLAYBACK'
p706
g11
(tRp707
S'BUFFER_RATIO'
p708
F2.8087333333333335
sS'CACHE_HIT_RATIO'
p709
F0.82199469394781755
sS'OVERHEAD'
p710
F6.68251698510542
sS'BUFFERING_PER_CONTENT'
p711
g11
(tRp712
I1
I1958
sI2
I2029
sI3
I1774
sI4
I1581
sI5
I1279
sI6
I1355
sI7
I1288
sI8
I1106
sI9
I1121
sI10
I953
sI11
I964
sI12
I1014
sI13
I901
sI14
I825
sI15
I746
sI16
I749
sI17
I778
sI18
I810
sI19
I641
sI20
I626
sI21
I627
sI22
I595
sI23
I465
sI24
I512
sI25
I589
sI26
I455
sI27
I564
sI28
I419
sI29
I431
sI30
I490
sI31
I404
sI32
I399
sI33
I343
sI34
I294
sI35
I343
sI36
I465
sI37
I383
sI38
I329
sI39
I352
sI40
I302
sI41
I388
sI42
I291
sI43
I259
sI44
I375
sI45
I291
sI46
I326
sI47
I294
sI48
I312
sI49
I220
sI50
I250
sI51
I257
sI52
I265
sI53
I157
sI54
I192
sI55
I224
sI56
I277
sI57
I193
sI58
I192
sI59
I277
sI60
I206
sI61
I206
sI62
I212
sI63
I201
sI64
I151
sI65
I177
sI66
I231
sI67
I152
sI68
I175
sI69
I174
sI70
I237
sI71
I214
sI72
I164
sI73
I130
sI74
I158
sI75
I143
sI76
I161
sI77
I165
sI78
I144
sI79
I127
sI80
I173
sI81
I169
sI82
I116
sI83
I106
sI84
I94
sI85
I171
sI86
I120
sI87
I82
sI88
I125
sI89
I107
sI90
I100
sI91
I98
sI92
I101
sI93
I116
sI94
I95
sI95
I107
sI96
I149
sI97
I112
sI98
I59
sI99
I104
ssstp713
a(g11
(tRp714
S'computation_placement'
p715
g11
(tRp716
S'service_budget'
p717
I1
sS'name'
p718
S'EDGE'
p719
sS'computation_budget'
p720
I1
ssS'workload'
p721
g11
(tRp722
S'n_contents'
p723
I100
sS'playback_rate'
p724
I10
sS'n_chunks'
p725
I200
sS'n_warmup'
p726
I0
sS'rate'
p727
F50
sS'n_measured'
p728
F15000
sS'alpha'
p729
F0.75
sS'n_services'
p730
I1
sS'seed'
p731
I0
sS'wndw_size'
p732
I10
sg718
S'STATIONARY'
p733
ssS'sched_policy'
p734
g11
(tRp735
g718
S'EDF'
p736
ssS'cache_policy'
p737
g11
(tRp738
g718
S'LRU'
p739
ssS'strategy'
p740
g11
(tRp741
g723
I100
sg724
I10
sS'advertisement_period'
p742
F5
sg718
S'NDN_MEASUREMENT'
p743
sg732
I20
sg725
I200
ssS'content_placement'
p744
g11
(tRp745
g718
S'UNIFORM'
p746
sg725
I200
ssS'cache_placement'
p747
g11
(tRp748
S'network_cache'
p749
F1
sS'cache_budget'
p750
I400
sg718
g719
ssS'desc'
p751
S'strategy: NDN_MEASUREMENT buffer size 20'
p752
sS'warmup_strategy'
p753
g11
(tRp754
g723
I100
sg724
I10
sg742
F5
sg718
g743
sg732
I20
sg725
I200
ssS'topology'
p755
g11
(tRp756
S'nrecv_per_edge'
p757
I10
sg718
S'TISCALI'
p758
ssg11
(tRp759
S'VIDEO_PLAYBACK'
p760
g11
(tRp761
S'BUFFER_RATIO'
p762
F1.7955333333333334
sS'CACHE_HIT_RATIO'
p763
F0.83611273974926248
sS'OVERHEAD'
p764
F6.8220399705643127
sS'BUFFERING_PER_CONTENT'
p765
g11
(tRp766
I1
I932
sI2
I1137
sI3
I1076
sI4
I951
sI5
I835
sI6
I830
sI7
I782
sI8
I741
sI9
I671
sI10
I734
sI11
I556
sI12
I594
sI13
I596
sI14
I526
sI15
I507
sI16
I533
sI17
I489
sI18
I413
sI19
I453
sI20
I418
sI21
I451
sI22
I336
sI23
I363
sI24
I364
sI25
I345
sI26
I387
sI27
I269
sI28
I372
sI29
I309
sI30
I335
sI31
I299
sI32
I224
sI33
I226
sI34
I287
sI35
I239
sI36
I309
sI37
I211
sI38
I162
sI39
I221
sI40
I216
sI41
I243
sI42
I292
sI43
I174
sI44
I159
sI45
I199
sI46
I228
sI47
I127
sI48
I192
sI49
I200
sI50
I157
sI51
I148
sI52
I179
sI53
I170
sI54
I141
sI55
I80
sI56
I154
sI57
I114
sI58
I182
sI59
I128
sI60
I141
sI61
I131
sI62
I138
sI63
I123
sI64
I148
sI65
I104
sI66
I117
sI67
I114
sI68
I150
sI69
I156
sI70
I150
sI71
I117
sI72
I84
sI73
I104
sI74
I76
sI75
I127
sI76
I54
sI77
I96
sI78
I140
sI79
I79
sI80
I114
sI81
I71
sI82
I127
sI83
I110
sI84
I52
sI85
I58
sI86
I70
sI87
I46
sI88
I103
sI89
I57
sI90
I102
sI91
I109
sI92
I140
sI93
I47
sI94
I75
sI95
I75
sI96
I97
sI97
I34
sI98
I53
sI99
I78
ssstp767
a(g11
(tRp768
S'computation_placement'
p769
g11
(tRp770
S'service_budget'
p771
I1
sS'name'
p772
S'EDGE'
p773
sS'computation_budget'
p774
I1
ssS'workload'
p775
g11
(tRp776
S'n_contents'
p777
I100
sS'playback_rate'
p778
I10
sS'n_chunks'
p779
I200
sS'n_warmup'
p780
I0
sS'rate'
p781
F50
sS'n_measured'
p782
F15000
sS'alpha'
p783
F0.75
sS'n_services'
p784
I1
sS'seed'
p785
I0
sS'wndw_size'
p786
I10
sg772
S'STATIONARY'
p787
ssS'sched_policy'
p788
g11
(tRp789
g772
S'EDF'
p790
ssS'cache_policy'
p791
g11
(tRp792
g772
S'LRU'
p793
ssS'strategy'
p794
g11
(tRp795
g777
I100
sg778
I10
sS'advertisement_period'
p796
F5
sg772
S'NDN_MEASUREMENT'
p797
sg786
I25
sg779
I200
ssS'content_placement'
p798
g11
(tRp799
g772
S'UNIFORM'
p800
sg779
I200
ssS'cache_placement'
p801
g11
(tRp802
S'network_cache'
p803
F1
sS'cache_budget'
p804
I400
sg772
g773
ssS'desc'
p805
S'strategy: NDN_MEASUREMENT buffer size 25'
p806
sS'warmup_strategy'
p807
g11
(tRp808
g777
I100
sg778
I10
sg796
F5
sg772
g797
sg786
I25
sg779
I200
ssS'topology'
p809
g11
(tRp810
S'nrecv_per_edge'
p811
I10
sg772
S'TISCALI'
p812
ssg11
(tRp813
S'VIDEO_PLAYBACK'
p814
g11
(tRp815
S'BUFFER_RATIO'
p816
F1.2378666666666667
sS'CACHE_HIT_RATIO'
p817
F0.84123522602737888
sS'OVERHEAD'
p818
F6.8338087174141968
sS'BUFFERING_PER_CONTENT'
p819
g11
(tRp820
I1
I648
sI2
I708
sI3
I657
sI4
I621
sI5
I608
sI6
I529
sI7
I585
sI8
I538
sI9
I466
sI10
I482
sI11
I413
sI12
I452
sI13
I387
sI14
I388
sI15
I336
sI16
I348
sI17
I364
sI18
I284
sI19
I288
sI20
I259
sI21
I280
sI22
I233
sI23
I290
sI24
I315
sI25
I193
sI26
I202
sI27
I302
sI28
I293
sI29
I243
sI30
I266
sI31
I189
sI32
I173
sI33
I173
sI34
I181
sI35
I131
sI36
I159
sI37
I131
sI38
I181
sI39
I112
sI40
I122
sI41
I144
sI42
I184
sI43
I121
sI44
I181
sI45
I143
sI46
I99
sI47
I75
sI48
I136
sI49
I91
sI50
I130
sI51
I103
sI52
I127
sI53
I104
sI54
I95
sI55
I141
sI56
I98
sI57
I100
sI58
I121
sI59
I97
sI60
I116
sI61
I85
sI62
I125
sI63
I86
sI64
I84
sI65
I54
sI66
I53
sI67
I79
sI68
I81
sI69
I49
sI70
I126
sI71
I77
sI72
I61
sI73
I79
sI74
I68
sI75
I70
sI76
I99
sI77
I53
sI78
I62
sI79
I53
sI80
I62
sI81
I55
sI82
I49
sI83
I74
sI84
I44
sI85
I97
sI86
I83
sI87
I32
sI88
I70
sI89
I103
sI90
I77
sI91
I84
sI92
I33
sI93
I39
sI94
I55
sI95
I39
sI96
I44
sI97
I66
sI98
I69
sI99
I13
ssstp821
a(g11
(tRp822
S'computation_placement'
p823
g11
(tRp824
S'service_budget'
p825
I1
sS'name'
p826
S'EDGE'
p827
sS'computation_budget'
p828
I1
ssS'workload'
p829
g11
(tRp830
S'n_contents'
p831
I100
sS'playback_rate'
p832
I10
sS'n_chunks'
p833
I200
sS'n_warmup'
p834
I0
sS'rate'
p835
F50
sS'n_measured'
p836
F15000
sS'alpha'
p837
F0.75
sS'n_services'
p838
I1
sS'seed'
p839
I0
sS'wndw_size'
p840
I10
sg826
S'STATIONARY'
p841
ssS'sched_policy'
p842
g11
(tRp843
g826
S'EDF'
p844
ssS'cache_policy'
p845
g11
(tRp846
g826
S'LRU'
p847
ssS'strategy'
p848
g11
(tRp849
g831
I100
sg832
I10
sS'advertisement_period'
p850
F5
sg826
S'NDN_MEASUREMENT'
p851
sg840
I30
sg833
I200
ssS'content_placement'
p852
g11
(tRp853
g826
S'UNIFORM'
p854
sg833
I200
ssS'cache_placement'
p855
g11
(tRp856
S'network_cache'
p857
F1
sS'cache_budget'
p858
I400
sg826
g827
ssS'desc'
p859
S'strategy: NDN_MEASUREMENT buffer size 30'
p860
sS'warmup_strategy'
p861
g11
(tRp862
g831
I100
sg832
I10
sg850
F5
sg826
g851
sg840
I30
sg833
I200
ssS'topology'
p863
g11
(tRp864
S'nrecv_per_edge'
p865
I10
sg826
S'TISCALI'
p866
ssg11
(tRp867
S'VIDEO_PLAYBACK'
p868
g11
(tRp869
S'BUFFER_RATIO'
p870
F0.84766666666666668
sS'CACHE_HIT_RATIO'
p871
F0.84212194449531219
sS'OVERHEAD'
p872
F6.7979068857983638
sS'BUFFERING_PER_CONTENT'
p873
g11
(tRp874
I1
I369
sI2
I417
sI3
I423
sI4
I408
sI5
I430
sI6
I388
sI7
I347
sI8
I448
sI9
I333
sI10
I344
sI11
I298
sI12
I356
sI13
I309
sI14
I302
sI15
I311
sI16
I230
sI17
I203
sI18
I250
sI19
I217
sI20
I209
sI21
I149
sI22
I178
sI23
I135
sI24
I201
sI25
I190
sI26
I109
sI27
I145
sI28
I142
sI29
I107
sI30
I136
sI31
I157
sI32
I182
sI33
I122
sI34
I132
sI35
I111
sI36
I103
sI37
I94
sI38
I125
sI39
I126
sI40
I133
sI41
I122
sI42
I81
sI43
I93
sI44
I50
sI45
I103
sI46
I87
sI47
I70
sI48
I69
sI49
I84
sI50
I70
sI51
I81
sI52
I67
sI53
I48
sI54
I92
sI55
I73
sI56
I36
sI57
I84
sI58
I62
sI59
I64
sI60
I40
sI61
I80
sI62
I80
sI63
I40
sI64
I54
sI65
I60
sI66
I48
sI67
I86
sI68
I45
sI69
I70
sI70
I57
sI71
I62
sI72
I44
sI73
I55
sI74
I39
sI75
I49
sI76
I51
sI77
I45
sI78
I35
sI79
I17
sI80
I59
sI81
I38
sI82
I72
sI83
I57
sI84
I37
sI85
I35
sI86
I44
sI87
I45
sI88
I32
sI89
I47
sI90
I27
sI91
I71
sI92
I43
sI93
I34
sI94
I50
sI95
I44
sI96
I40
sI97
I25
sI98
I24
sI99
I29
ssstp875
a(g11
(tRp876
S'computation_placement'
p877
g11
(tRp878
S'service_budget'
p879
I1
sS'name'
p880
S'EDGE'
p881
sS'computation_budget'
p882
I1
ssS'workload'
p883
g11
(tRp884
S'n_contents'
p885
I100
sS'playback_rate'
p886
I10
sS'n_chunks'
p887
I200
sS'n_warmup'
p888
I0
sS'rate'
p889
F50
sS'n_measured'
p890
F15000
sS'alpha'
p891
F0.75
sS'n_services'
p892
I1
sS'seed'
p893
I0
sS'wndw_size'
p894
I10
sg880
S'STATIONARY'
p895
ssS'sched_policy'
p896
g11
(tRp897
g880
S'EDF'
p898
ssS'cache_policy'
p899
g11
(tRp900
g880
S'LRU'
p901
ssS'strategy'
p902
g11
(tRp903
g885
I100
sg886
I10
sS'advertisement_period'
p904
F5
sg880
S'IPFS'
p905
sg894
I15
sg887
I200
ssS'content_placement'
p906
g11
(tRp907
g880
S'UNIFORM'
p908
sg887
I200
ssS'cache_placement'
p909
g11
(tRp910
S'network_cache'
p911
F1
sS'cache_budget'
p912
I400
sg880
g881
ssS'desc'
p913
S'strategy: IPFS buffer size 15'
p914
sS'warmup_strategy'
p915
g11
(tRp916
g885
I100
sg886
I10
sg904
F5
sg880
g905
sg894
I15
sg887
I200
ssS'topology'
p917
g11
(tRp918
S'nrecv_per_edge'
p919
I10
sg880
S'TISCALI'
p920
ssg11
(tRp921
S'VIDEO_PLAYBACK'
p922
g11
(tRp923
S'BUFFER_RATIO'
p924
F0.010533333333333334
sS'CACHE_HIT_RATIO'
p925
F0.28306833333333331
sS'OVERHEAD'
p926
F7.1727673333333337
sS'BUFFERING_PER_CONTENT'
p927
g11
(tRp928
I1
I11
sI2
I6
sI4
I20
sI5
I9
sI6
I1
sI8
I8
sI9
I8
sI13
I9
sI15
I5
sI24
I2
sI28
I4
sI29
I5
sI38
I5
sI39
I1
sI43
I2
sI44
I1
sI45
I8
sI48
I7
sI51
I5
sI52
I2
sI56
I4
sI59
I3
sI64
I5
sI65
I3
sI66
I1
sI68
I3
sI78
I2
sI79
I2
sI80
I2
sI87
I6
sI91
I3
sI92
I1
sI95
I1
sI98
I3
ssstp929
a(g11
(tRp930
S'computation_placement'
p931
g11
(tRp932
S'service_budget'
p933
I1
sS'name'
p934
S'EDGE'
p935
sS'computation_budget'
p936
I1
ssS'workload'
p937
g11
(tRp938
S'n_contents'
p939
I100
sS'playback_rate'
p940
I10
sS'n_chunks'
p941
I200
sS'n_warmup'
p942
I0
sS'rate'
p943
F50
sS'n_measured'
p944
F15000
sS'alpha'
p945
F0.75
sS'n_services'
p946
I1
sS'seed'
p947
I0
sS'wndw_size'
p948
I10
sg934
S'STATIONARY'
p949
ssS'sched_policy'
p950
g11
(tRp951
g934
S'EDF'
p952
ssS'cache_policy'
p953
g11
(tRp954
g934
S'LRU'
p955
ssS'strategy'
p956
g11
(tRp957
g939
I100
sg940
I10
sS'advertisement_period'
p958
F5
sg934
S'IPFS'
p959
sg948
I20
sg941
I200
ssS'content_placement'
p960
g11
(tRp961
g934
S'UNIFORM'
p962
sg941
I200
ssS'cache_placement'
p963
g11
(tRp964
S'network_cache'
p965
F1
sS'cache_budget'
p966
I400
sg934
g935
ssS'desc'
p967
S'strategy: IPFS buffer size 20'
p968
sS'warmup_strategy'
p969
g11
(tRp970
g939
I100
sg940
I10
sg958
F5
sg934
g959
sg948
I20
sg941
I200
ssS'topology'
p971
g11
(tRp972
S'nrecv_per_edge'
p973
I10
sg934
S'TISCALI'
p974
ssg11
(tRp975
S'VIDEO_PLAYBACK'
p976
g11
(tRp977
S'BUFFER_RATIO'
p978
F0.0080000000000000002
sS'CACHE_HIT_RATIO'
p979
F0.30405066666666669
sS'OVERHEAD'
p980
F7.1643556666666663
sS'BUFFERING_PER_CONTENT'
p981
g11
(tRp982
I1
I5
sI2
I6
sI3
I11
sI4
I10
sI5
I1
sI7
I15
sI9
I6
sI10
I4
sI11
I8
sI12
I1
sI13
I3
sI15
I6
sI16
I2
sI22
I4
sI23
I2
sI26
I4
sI37
I1
sI41
I2
sI48
I4
sI50
I4
sI53
I1
sI55
I5
sI64
I2
sI65
I4
sI73
I1
sI85
I4
sI89
I3
sI93
I1
ssstp983
a(g11
(tRp984
S'computation_placement'
p985
g11
(tRp986
S'service_budget'
p987
I1
sS'name'
p988
S'EDGE'
p989
sS'computation_budget'
p990
I1
ssS'workload'
p991
g11
(tRp992
S'n_contents'
p993
I100
sS'playback_rate'
p994
I10
sS'n_chunks'
p995
I200
sS'n_warmup'
p996
I0
sS'rate'
p997
F50
sS'n_measured'
p998
F15000
sS'alpha'
p999
F0.75
sS'n_services'
p1000
I1
sS'seed'
p1001
I0
sS'wndw_size'
p1002
I10
sg988
S'STATIONARY'
p1003
ssS'sched_policy'
p1004
g11
(tRp1005
g988
S'EDF'
p1006
ssS'cache_policy'
p1007
g11
(tRp1008
g988
S'LRU'
p1009
ssS'strategy'
p1010
g11
(tRp1011
g993
I100
sg994
I10
sS'advertisement_period'
p1012
F5
sg988
S'IPFS'
p1013
sg1002
I25
sg995
I200
ssS'content_placement'
p1014
g11
(tRp1015
g988
S'UNIFORM'
p1016
sg995
I200
ssS'cache_placement'
p1017
g11
(tRp1018
S'network_cache'
p1019
F1
sS'cache_budget'
p1020
I400
sg988
g989
ssS'desc'
p1021
S'strategy: IPFS buffer size 25'
p1022
sS'warmup_strategy'
p1023
g11
(tRp1024
g993
I100
sg994
I10
sg1012
F5
sg988
g1013
sg1002
I25
sg995
I200
ssS'topology'
p1025
g11
(tRp1026
S'nrecv_per_edge'
p1027
I10
sg988
S'TISCALI'
p1028
ssg11
(tRp1029
S'VIDEO_PLAYBACK'
p1030
g11
(tRp1031
S'BUFFER_RATIO'
p1032
F0.008266666666666667
sS'CACHE_HIT_RATIO'
p1033
F0.32555966666666669
sS'OVERHEAD'
p1034
F7.1867320000000001
sS'BUFFERING_PER_CONTENT'
p1035
g11
(tRp1036
I1
I5
sI2
I3
sI3
I1
sI4
I1
sI6
I12
sI11
I4
sI13
I1
sI17
I4
sI20
I4
sI25
I4
sI26
I6
sI27
I3
sI29
I2
sI30
I1
sI34
I5
sI35
I1
sI36
I4
sI39
I2
sI41
I7
sI43
I4
sI44
I6
sI48
I1
sI50
I2
sI57
I1
sI68
I6
sI69
I1
sI71
I5
sI78
I1
sI79
I1
sI80
I4
sI83
I4
sI84
I1
sI87
I4
sI88
I1
sI91
I1
sI94
I4
sI96
I1
sI97
I3
sI99
I3
ssstp1037
a(g11
(tRp1038
S'computation_placement'
p1039
g11
(tRp1040
S'service_budget'
p1041
I1
sS'name'
p1042
S'EDGE'
p1043
sS'computation_budget'
p1044
I1
ssS'workload'
p1045
g11
(tRp1046
S'n_contents'
p1047
I100
sS'playback_rate'
p1048
I10
sS'n_chunks'
p1049
I200
sS'n_warmup'
p1050
I0
sS'rate'
p1051
F50
sS'n_measured'
p1052
F15000
sS'alpha'
p1053
F0.75
sS'n_services'
p1054
I1
sS'seed'
p1055
I0
sS'wndw_size'
p1056
I10
sg1042
S'STATIONARY'
p1057
ssS'sched_policy'
p1058
g11
(tRp1059
g1042
S'EDF'
p1060
ssS'cache_policy'
p1061
g11
(tRp1062
g1042
S'LRU'
p1063
ssS'strategy'
p1064
g11
(tRp1065
g1047
I100
sg1048
I10
sS'advertisement_period'
p1066
F5
sg1042
S'IPFS'
p1067
sg1056
I30
sg1049
I200
ssS'content_placement'
p1068
g11
(tRp1069
g1042
S'UNIFORM'
p1070
sg1049
I200
ssS'cache_placement'
p1071
g11
(tRp1072
S'network_cache'
p1073
F1
sS'cache_budget'
p1074
I400
sg1042
g1043
ssS'desc'
p1075
S'strategy: IPFS buffer size 30'
p1076
sS'warmup_strategy'
p1077
g11
(tRp1078
g1047
I100
sg1048
I10
sg1066
F5
sg1042
g1067
sg1056
I30
sg1049
I200
ssS'topology'
p1079
g11
(tRp1080
S'nrecv_per_edge'
p1081
I10
sg1042
S'TISCALI'
p1082
ssg11
(tRp1083
S'VIDEO_PLAYBACK'
p1084
g11
(tRp1085
S'BUFFER_RATIO'
p1086
F0.0091999999999999998
sS'CACHE_HIT_RATIO'
p1087
F0.34725033333333333
sS'OVERHEAD'
p1088
F7.1983459999999999
sS'BUFFERING_PER_CONTENT'
p1089
g11
(tRp1090
I2
I6
sI3
I1
sI5
I1
sI6
I1
sI9
I9
sI10
I2
sI14
I6
sI16
I18
sI17
I1
sI22
I1
sI25
I5
sI28
I3
sI33
I11
sI35
I3
sI37
I3
sI38
I7
sI41
I5
sI44
I4
sI45
I3
sI46
I4
sI47
I2
sI48
I2
sI55
I1
sI56
I5
sI59
I4
sI67
I4
sI69
I9
sI74
I5
sI77
I2
sI85
I4
sI86
I2
sI88
I2
sI90
I1
sI98
I1
ssstp1091
atRp1092
sb.