ccopy_reg
_reconstructor
p1
(cicarus.results.readwrite
ResultSet
p2
c__builtin__
object
p3
NtRp4
(dp5
S'attr'
p6
(dp7
sS'_results'
p8
ccollections
deque
p9
((lp10
(cicarus.util
Tree
p11
(tRp12
S'computation_placement'
p13
g11
(tRp14
S'service_budget'
p15
I1
sS'name'
p16
S'EDGE'
p17
sS'computation_budget'
p18
I1
ssS'workload'
p19
g11
(tRp20
S'n_contents'
p21
I100
sS'playback_rate'
p22
I10
sS'n_chunks'
p23
I200
sS'n_warmup'
p24
I0
sS'rate'
p25
F50
sS'n_measured'
p26
F15000
sS'alpha'
p27
F0.75
sS'n_services'
p28
I1
sS'seed'
p29
I0
sS'wndw_size'
p30
I10
sg16
S'STATIONARY'
p31
ssS'sched_policy'
p32
g11
(tRp33
g16
S'EDF'
p34
ssS'cache_policy'
p35
g11
(tRp36
g16
S'LRU'
p37
ssS'strategy'
p38
g11
(tRp39
g21
I100
sg22
I10
sS'advertisement_period'
p40
F5
sg23
I200
sS'load_balance_distance'
p41
I1
sg30
I10
sg16
S'NDN'
p42
ssS'content_placement'
p43
g11
(tRp44
g16
S'UNIFORM'
p45
sg23
I200
ssS'cache_placement'
p46
g11
(tRp47
S'network_cache'
p48
F1
sS'network_cache_size'
p49
F200
sS'cache_budget'
p50
I400
sg16
g17
ssS'desc'
p51
S'strategy: NDN cache size 200.0'
p52
sS'warmup_strategy'
p53
g11
(tRp54
g21
I100
sg22
I10
sg40
F5
sg16
g42
sg41
I1
sg30
I10
sg23
I200
ssS'topology'
p55
g11
(tRp56
S'nrecv_per_edge'
p57
I10
sg16
S'TISCALI'
p58
ssg11
(tRp59
S'VIDEO_PLAYBACK'
p60
g11
(tRp61
S'ROUTER_HIT_RATIO'
p62
F0
sS'BUFFER_RATIO'
p63
F4.4523333333333337
sS'CACHE_HIT_RATIO'
p64
F0.77162366560297913
sS'OVERHEAD'
p65
F2.7504886713581804
sS'BUFFERING_PER_CONTENT'
p66
g11
(tRp67
I1
I16829
sI2
I9262
sI3
I5488
sI4
I3416
sI5
I3450
sI6
I2170
sI7
I2390
sI8
I1649
sI9
I1229
sI10
I880
sI11
I983
sI12
I829
sI13
I784
sI14
I841
sI15
I889
sI16
I608
sI17
I734
sI18
I407
sI19
I314
sI20
I322
sI21
I241
sI22
I344
sI23
I470
sI24
I250
sI25
I217
sI26
I296
sI27
I401
sI28
I379
sI29
I152
sI30
I438
sI31
I363
sI32
I356
sI33
I292
sI34
I168
sI35
I206
sI36
I177
sI37
I221
sI38
I228
sI39
I108
sI40
I275
sI41
I289
sI42
I116
sI43
I217
sI44
I180
sI45
I212
sI46
I154
sI47
I230
sI48
I142
sI49
I70
sI50
I196
sI51
I147
sI52
I170
sI53
I73
sI54
I147
sI55
I148
sI56
I200
sI57
I136
sI58
I237
sI59
I257
sI60
I179
sI61
I98
sI62
I72
sI63
I162
sI64
I83
sI65
I203
sI66
I41
sI67
I49
sI68
I106
sI69
I129
sI70
I145
sI71
I139
sI72
I175
sI73
I138
sI74
I189
sI75
I139
sI76
I142
sI77
I43
sI78
I95
sI79
I147
sI80
I85
sI81
I85
sI82
I97
sI83
I89
sI84
I94
sI85
I136
sI86
I214
sI87
I91
sI88
I160
sI89
I39
sI90
I230
sI91
I91
sI92
I37
sI93
I62
sI94
I58
sI95
I55
sI96
I46
sI97
I103
sI98
I47
sI99
I115
ssstp68
a(g11
(tRp69
S'computation_placement'
p70
g11
(tRp71
S'service_budget'
p72
I1
sS'name'
p73
S'EDGE'
p74
sS'computation_budget'
p75
I1
ssS'workload'
p76
g11
(tRp77
S'n_contents'
p78
I100
sS'playback_rate'
p79
I10
sS'n_chunks'
p80
I200
sS'n_warmup'
p81
I0
sS'rate'
p82
F50
sS'n_measured'
p83
F15000
sS'alpha'
p84
F0.75
sS'n_services'
p85
I1
sS'seed'
p86
I0
sS'wndw_size'
p87
I10
sg73
S'STATIONARY'
p88
ssS'sched_policy'
p89
g11
(tRp90
g73
S'EDF'
p91
ssS'cache_policy'
p92
g11
(tRp93
g73
S'LRU'
p94
ssS'strategy'
p95
g11
(tRp96
g78
I100
sg79
I10
sS'advertisement_period'
p97
F5
sg80
I200
sS'load_balance_distance'
p98
I1
sg87
I10
sg73
S'NDN'
p99
ssS'content_placement'
p100
g11
(tRp101
g73
S'UNIFORM'
p102
sg80
I200
ssS'cache_placement'
p103
g11
(tRp104
S'network_cache'
p105
F1
sS'network_cache_size'
p106
F1000
sS'cache_budget'
p107
I400
sg73
g74
ssS'desc'
p108
S'strategy: NDN cache size 1000.0'
p109
sS'warmup_strategy'
p110
g11
(tRp111
g78
I100
sg79
I10
sg97
F5
sg73
g99
sg98
I1
sg87
I10
sg80
I200
ssS'topology'
p112
g11
(tRp113
S'nrecv_per_edge'
p114
I10
sg73
S'TISCALI'
p115
ssg11
(tRp116
S'VIDEO_PLAYBACK'
p117
g11
(tRp118
S'ROUTER_HIT_RATIO'
p119
F0
sS'BUFFER_RATIO'
p120
F3.7537333333333334
sS'CACHE_HIT_RATIO'
p121
F0.77187711893816835
sS'OVERHEAD'
p122
F2.6098030421945659
sS'BUFFERING_PER_CONTENT'
p123
g11
(tRp124
I1
I14703
sI2
I7553
sI3
I5036
sI4
I3252
sI5
I1988
sI6
I1514
sI7
I1682
sI8
I1358
sI9
I1044
sI10
I837
sI11
I991
sI12
I695
sI13
I758
sI14
I540
sI15
I406
sI16
I315
sI17
I514
sI18
I636
sI19
I251
sI20
I480
sI21
I412
sI22
I385
sI23
I303
sI24
I292
sI25
I426
sI26
I235
sI27
I305
sI28
I357
sI29
I216
sI30
I330
sI31
I208
sI32
I357
sI33
I185
sI34
I233
sI35
I129
sI36
I188
sI37
I204
sI38
I160
sI39
I195
sI40
I261
sI41
I218
sI42
I288
sI43
I150
sI44
I175
sI45
I136
sI46
I96
sI47
I215
sI48
I170
sI49
I94
sI50
I146
sI51
I47
sI52
I204
sI53
I134
sI54
I145
sI55
I116
sI56
I154
sI57
I50
sI58
I94
sI59
I88
sI60
I53
sI61
I106
sI62
I91
sI63
I69
sI64
I124
sI65
I61
sI66
I116
sI67
I90
sI68
I152
sI69
I60
sI70
I226
sI71
I187
sI72
I71
sI73
I91
sI74
I37
sI75
I65
sI76
I46
sI77
I87
sI78
I98
sI79
I55
sI80
I99
sI81
I176
sI82
I245
sI83
I104
sI84
I91
sI85
I73
sI86
I49
sI87
I49
sI88
I97
sI89
I68
sI90
I178
sI91
I115
sI92
I22
sI93
I58
sI94
I22
sI95
I57
sI96
I79
sI97
I72
sI98
I44
sI99
I69
ssstp125
a(g11
(tRp126
S'computation_placement'
p127
g11
(tRp128
S'service_budget'
p129
I1
sS'name'
p130
S'EDGE'
p131
sS'computation_budget'
p132
I1
ssS'workload'
p133
g11
(tRp134
S'n_contents'
p135
I100
sS'playback_rate'
p136
I10
sS'n_chunks'
p137
I200
sS'n_warmup'
p138
I0
sS'rate'
p139
F50
sS'n_measured'
p140
F15000
sS'alpha'
p141
F0.75
sS'n_services'
p142
I1
sS'seed'
p143
I0
sS'wndw_size'
p144
I10
sg130
S'STATIONARY'
p145
ssS'sched_policy'
p146
g11
(tRp147
g130
S'EDF'
p148
ssS'cache_policy'
p149
g11
(tRp150
g130
S'LRU'
p151
ssS'strategy'
p152
g11
(tRp153
g135
I100
sg136
I10
sS'advertisement_period'
p154
F5
sg137
I200
sS'load_balance_distance'
p155
I1
sg144
I10
sg130
S'NDN'
p156
ssS'content_placement'
p157
g11
(tRp158
g130
S'UNIFORM'
p159
sg137
I200
ssS'cache_placement'
p160
g11
(tRp161
S'network_cache'
p162
F1
sS'network_cache_size'
p163
F100
sS'cache_budget'
p164
I400
sg130
g131
ssS'desc'
p165
S'strategy: NDN cache size 100.0'
p166
sS'warmup_strategy'
p167
g11
(tRp168
g135
I100
sg136
I10
sg154
F5
sg130
g156
sg155
I1
sg144
I10
sg137
I200
ssS'topology'
p169
g11
(tRp170
S'nrecv_per_edge'
p171
I10
sg130
S'TISCALI'
p172
ssg11
(tRp173
S'VIDEO_PLAYBACK'
p174
g11
(tRp175
S'ROUTER_HIT_RATIO'
p176
F0
sS'BUFFER_RATIO'
p177
F4.763066666666667
sS'CACHE_HIT_RATIO'
p178
F0.77574284241299296
sS'OVERHEAD'
p179
F2.8058943671573222
sS'BUFFERING_PER_CONTENT'
p180
g11
(tRp181
I1
I17552
sI2
I9970
sI3
I5399
sI4
I4247
sI5
I3142
sI6
I2104
sI7
I2203
sI8
I1174
sI9
I1489
sI10
I1217
sI11
I1241
sI12
I1113
sI13
I667
sI14
I667
sI15
I743
sI16
I418
sI17
I737
sI18
I525
sI19
I375
sI20
I495
sI21
I447
sI22
I711
sI23
I306
sI24
I360
sI25
I443
sI26
I276
sI27
I296
sI28
I472
sI29
I338
sI30
I373
sI31
I352
sI32
I358
sI33
I397
sI34
I203
sI35
I279
sI36
I282
sI37
I367
sI38
I283
sI39
I406
sI40
I135
sI41
I178
sI42
I123
sI43
I220
sI44
I171
sI45
I236
sI46
I172
sI47
I439
sI48
I201
sI49
I268
sI50
I318
sI51
I224
sI52
I198
sI53
I102
sI54
I150
sI55
I169
sI56
I254
sI57
I212
sI58
I151
sI59
I236
sI60
I183
sI61
I207
sI62
I121
sI63
I93
sI64
I186
sI65
I221
sI66
I112
sI67
I162
sI68
I112
sI69
I157
sI70
I141
sI71
I137
sI72
I92
sI73
I83
sI74
I103
sI75
I103
sI76
I80
sI77
I147
sI78
I44
sI79
I98
sI80
I118
sI81
I116
sI82
I139
sI83
I226
sI84
I135
sI85
I166
sI86
I102
sI87
I192
sI88
I73
sI89
I86
sI90
I91
sI91
I136
sI92
I85
sI93
I101
sI94
I67
sI95
I33
sI96
I185
sI97
I92
sI98
I53
sI99
I84
ssstp182
a(g11
(tRp183
S'computation_placement'
p184
g11
(tRp185
S'service_budget'
p186
I1
sS'name'
p187
S'EDGE'
p188
sS'computation_budget'
p189
I1
ssS'workload'
p190
g11
(tRp191
S'n_contents'
p192
I100
sS'playback_rate'
p193
I10
sS'n_chunks'
p194
I200
sS'n_warmup'
p195
I0
sS'rate'
p196
F50
sS'n_measured'
p197
F15000
sS'alpha'
p198
F0.75
sS'n_services'
p199
I1
sS'seed'
p200
I0
sS'wndw_size'
p201
I10
sg187
S'STATIONARY'
p202
ssS'sched_policy'
p203
g11
(tRp204
g187
S'EDF'
p205
ssS'cache_policy'
p206
g11
(tRp207
g187
S'LRU'
p208
ssS'strategy'
p209
g11
(tRp210
g192
I100
sg193
I10
sS'advertisement_period'
p211
F5
sg194
I200
sS'load_balance_distance'
p212
I1
sg201
I10
sg187
S'NDN'
p213
ssS'content_placement'
p214
g11
(tRp215
g187
S'UNIFORM'
p216
sg194
I200
ssS'cache_placement'
p217
g11
(tRp218
S'network_cache'
p219
F1
sS'network_cache_size'
p220
F20
sS'cache_budget'
p221
I400
sg187
g188
ssS'desc'
p222
S'strategy: NDN cache size 20.0'
p223
sS'warmup_strategy'
p224
g11
(tRp225
g192
I100
sg193
I10
sg211
F5
sg187
g213
sg212
I1
sg201
I10
sg194
I200
ssS'topology'
p226
g11
(tRp227
S'nrecv_per_edge'
p228
I10
sg187
S'TISCALI'
p229
ssg11
(tRp230
S'VIDEO_PLAYBACK'
p231
g11
(tRp232
S'ROUTER_HIT_RATIO'
p233
F0
sS'BUFFER_RATIO'
p234
F4.7985333333333333
sS'CACHE_HIT_RATIO'
p235
F0.78009702012498416
sS'OVERHEAD'
p236
F2.8372552303168725
sS'BUFFERING_PER_CONTENT'
p237
g11
(tRp238
I1
I17242
sI2
I9575
sI3
I5381
sI4
I4009
sI5
I3517
sI6
I2135
sI7
I2261
sI8
I1945
sI9
I1456
sI10
I1199
sI11
I1164
sI12
I1062
sI13
I437
sI14
I901
sI15
I408
sI16
I527
sI17
I553
sI18
I373
sI19
I284
sI20
I683
sI21
I554
sI22
I383
sI23
I457
sI24
I525
sI25
I345
sI26
I363
sI27
I438
sI28
I319
sI29
I339
sI30
I617
sI31
I453
sI32
I410
sI33
I388
sI34
I335
sI35
I259
sI36
I227
sI37
I289
sI38
I329
sI39
I164
sI40
I296
sI41
I232
sI42
I215
sI43
I201
sI44
I131
sI45
I172
sI46
I119
sI47
I413
sI48
I208
sI49
I205
sI50
I123
sI51
I221
sI52
I217
sI53
I165
sI54
I163
sI55
I258
sI56
I190
sI57
I312
sI58
I282
sI59
I151
sI60
I107
sI61
I307
sI62
I117
sI63
I85
sI64
I162
sI65
I192
sI66
I245
sI67
I104
sI68
I120
sI69
I181
sI70
I92
sI71
I147
sI72
I111
sI73
I125
sI74
I208
sI75
I157
sI76
I88
sI77
I166
sI78
I146
sI79
I141
sI80
I144
sI81
I128
sI82
I104
sI83
I57
sI84
I86
sI85
I81
sI86
I196
sI87
I148
sI88
I89
sI89
I151
sI90
I189
sI91
I120
sI92
I108
sI93
I122
sI94
I91
sI95
I80
sI96
I166
sI97
I116
sI98
I46
sI99
I175
ssstp239
a(g11
(tRp240
S'computation_placement'
p241
g11
(tRp242
S'service_budget'
p243
I1
sS'name'
p244
S'EDGE'
p245
sS'computation_budget'
p246
I1
ssS'workload'
p247
g11
(tRp248
S'n_contents'
p249
I100
sS'playback_rate'
p250
I10
sS'n_chunks'
p251
I200
sS'n_warmup'
p252
I0
sS'rate'
p253
F50
sS'n_measured'
p254
F15000
sS'alpha'
p255
F0.75
sS'n_services'
p256
I1
sS'seed'
p257
I0
sS'wndw_size'
p258
I10
sg244
S'STATIONARY'
p259
ssS'sched_policy'
p260
g11
(tRp261
g244
S'EDF'
p262
ssS'cache_policy'
p263
g11
(tRp264
g244
S'LRU'
p265
ssS'strategy'
p266
g11
(tRp267
g249
I100
sg250
I10
sS'advertisement_period'
p268
F5
sg244
S'NDN_MEASUREMENT'
p269
sg258
I10
sg251
I200
ssS'content_placement'
p270
g11
(tRp271
g244
S'UNIFORM'
p272
sg251
I200
ssS'cache_placement'
p273
g11
(tRp274
S'network_cache'
p275
F1
sS'network_cache_size'
p276
F1000
sS'cache_budget'
p277
I400
sg244
g245
ssS'desc'
p278
S'strategy: NDN_MEASUREMENT cache size 1000.0'
p279
sS'warmup_strategy'
p280
g11
(tRp281
g249
I100
sg250
I10
sg268
F5
sg244
g269
sg258
I10
sg251
I200
ssS'topology'
p282
g11
(tRp283
S'nrecv_per_edge'
p284
I10
sg244
S'TISCALI'
p285
ssg11
(tRp286
S'VIDEO_PLAYBACK'
p287
g11
(tRp288
S'ROUTER_HIT_RATIO'
p289
F0
sS'BUFFER_RATIO'
p290
F0.0056666666666666671
sS'CACHE_HIT_RATIO'
p291
F0.87749600000000005
sS'OVERHEAD'
p292
F5.725273333333333
sS'BUFFERING_PER_CONTENT'
p293
g11
(tRp294
I32
I4
sI1
I1
sI34
I1
sI54
I5
sI6
I4
sI8
I1
sI9
I8
sI45
I5
sI12
I1
sI77
I4
sI46
I17
sI44
I4
sI16
I5
sI40
I1
sI76
I5
sI88
I3
sI89
I1
sI63
I15
ssstp295
a(g11
(tRp296
S'computation_placement'
p297
g11
(tRp298
S'service_budget'
p299
I1
sS'name'
p300
S'EDGE'
p301
sS'computation_budget'
p302
I1
ssS'workload'
p303
g11
(tRp304
S'n_contents'
p305
I100
sS'playback_rate'
p306
I10
sS'n_chunks'
p307
I200
sS'n_warmup'
p308
I0
sS'rate'
p309
F50
sS'n_measured'
p310
F15000
sS'alpha'
p311
F0.75
sS'n_services'
p312
I1
sS'seed'
p313
I0
sS'wndw_size'
p314
I10
sg300
S'STATIONARY'
p315
ssS'sched_policy'
p316
g11
(tRp317
g300
S'EDF'
p318
ssS'cache_policy'
p319
g11
(tRp320
g300
S'LRU'
p321
ssS'strategy'
p322
g11
(tRp323
g305
I100
sg306
I10
sS'advertisement_period'
p324
F5
sg300
S'NDN_MEASUREMENT'
p325
sg314
I10
sg307
I200
ssS'content_placement'
p326
g11
(tRp327
g300
S'UNIFORM'
p328
sg307
I200
ssS'cache_placement'
p329
g11
(tRp330
S'network_cache'
p331
F1
sS'network_cache_size'
p332
F200
sS'cache_budget'
p333
I400
sg300
g301
ssS'desc'
p334
S'strategy: NDN_MEASUREMENT cache size 200.0'
p335
sS'warmup_strategy'
p336
g11
(tRp337
g305
I100
sg306
I10
sg324
F5
sg300
g325
sg314
I10
sg307
I200
ssS'topology'
p338
g11
(tRp339
S'nrecv_per_edge'
p340
I10
sg300
S'TISCALI'
p341
ssg11
(tRp342
S'VIDEO_PLAYBACK'
p343
g11
(tRp344
S'ROUTER_HIT_RATIO'
p345
F0
sS'BUFFER_RATIO'
p346
F0.065799999999999997
sS'CACHE_HIT_RATIO'
p347
F0.85322333333333333
sS'OVERHEAD'
p348
F6.7036280000000001
sS'BUFFERING_PER_CONTENT'
p349
g11
(tRp350
I1
I165
sI2
I82
sI3
I54
sI4
I27
sI5
I58
sI6
I19
sI7
I40
sI8
I30
sI9
I19
sI10
I17
sI11
I6
sI12
I10
sI13
I15
sI14
I23
sI15
I1
sI16
I11
sI18
I17
sI19
I12
sI20
I7
sI21
I17
sI24
I9
sI25
I7
sI26
I2
sI27
I10
sI28
I1
sI29
I3
sI30
I2
sI31
I14
sI32
I6
sI33
I5
sI34
I14
sI36
I7
sI37
I5
sI39
I10
sI40
I1
sI41
I4
sI42
I1
sI44
I2
sI45
I6
sI46
I11
sI47
I8
sI48
I9
sI49
I4
sI50
I7
sI51
I7
sI52
I13
sI54
I9
sI55
I3
sI58
I6
sI59
I1
sI60
I5
sI62
I10
sI63
I7
sI64
I1
sI67
I8
sI68
I6
sI71
I5
sI73
I4
sI74
I3
sI75
I2
sI76
I10
sI77
I4
sI78
I14
sI80
I12
sI82
I2
sI83
I16
sI85
I4
sI86
I5
sI87
I9
sI88
I3
sI89
I2
sI90
I6
sI91
I7
sI94
I10
sI95
I3
sI98
I12
ssstp351
a(g11
(tRp352
S'computation_placement'
p353
g11
(tRp354
S'service_budget'
p355
I1
sS'name'
p356
S'EDGE'
p357
sS'computation_budget'
p358
I1
ssS'workload'
p359
g11
(tRp360
S'n_contents'
p361
I100
sS'playback_rate'
p362
I10
sS'n_chunks'
p363
I200
sS'n_warmup'
p364
I0
sS'rate'
p365
F50
sS'n_measured'
p366
F15000
sS'alpha'
p367
F0.75
sS'n_services'
p368
I1
sS'seed'
p369
I0
sS'wndw_size'
p370
I10
sg356
S'STATIONARY'
p371
ssS'sched_policy'
p372
g11
(tRp373
g356
S'EDF'
p374
ssS'cache_policy'
p375
g11
(tRp376
g356
S'LRU'
p377
ssS'strategy'
p378
g11
(tRp379
g361
I100
sg362
I10
sS'advertisement_period'
p380
F5
sg356
S'NDN_MEASUREMENT'
p381
sg370
I10
sg363
I200
ssS'content_placement'
p382
g11
(tRp383
g356
S'UNIFORM'
p384
sg363
I200
ssS'cache_placement'
p385
g11
(tRp386
S'network_cache'
p387
F1
sS'network_cache_size'
p388
F100
sS'cache_budget'
p389
I400
sg356
g357
ssS'desc'
p390
S'strategy: NDN_MEASUREMENT cache size 100.0'
p391
sS'warmup_strategy'
p392
g11
(tRp393
g361
I100
sg362
I10
sg380
F5
sg356
g381
sg370
I10
sg363
I200
ssS'topology'
p394
g11
(tRp395
S'nrecv_per_edge'
p396
I10
sg356
S'TISCALI'
p397
ssg11
(tRp398
S'VIDEO_PLAYBACK'
p399
g11
(tRp400
S'ROUTER_HIT_RATIO'
p401
F0
sS'BUFFER_RATIO'
p402
F0.09873333333333334
sS'CACHE_HIT_RATIO'
p403
F0.84793533333333337
sS'OVERHEAD'
p404
F6.8154329999999996
sS'BUFFERING_PER_CONTENT'
p405
g11
(tRp406
I1
I211
sI2
I172
sI3
I106
sI4
I97
sI5
I49
sI6
I53
sI7
I29
sI8
I35
sI9
I39
sI10
I37
sI11
I7
sI12
I8
sI13
I27
sI14
I23
sI15
I27
sI16
I5
sI17
I8
sI18
I2
sI19
I5
sI20
I15
sI21
I12
sI22
I1
sI23
I17
sI24
I1
sI25
I18
sI26
I19
sI27
I2
sI29
I3
sI30
I34
sI31
I13
sI32
I2
sI33
I2
sI34
I31
sI36
I7
sI37
I18
sI38
I5
sI39
I1
sI40
I14
sI42
I1
sI43
I13
sI44
I2
sI45
I8
sI46
I7
sI47
I29
sI48
I1
sI49
I1
sI50
I2
sI51
I4
sI52
I2
sI53
I9
sI54
I15
sI55
I20
sI56
I1
sI57
I10
sI58
I4
sI59
I3
sI60
I6
sI61
I15
sI62
I8
sI63
I12
sI64
I15
sI65
I5
sI66
I4
sI67
I4
sI68
I8
sI69
I1
sI70
I2
sI71
I5
sI72
I3
sI73
I3
sI75
I3
sI76
I6
sI78
I5
sI80
I4
sI81
I4
sI83
I9
sI85
I7
sI87
I18
sI89
I12
sI91
I8
sI92
I4
sI94
I1
sI95
I17
sI96
I1
sI98
I4
ssstp407
a(g11
(tRp408
S'computation_placement'
p409
g11
(tRp410
S'service_budget'
p411
I1
sS'name'
p412
S'EDGE'
p413
sS'computation_budget'
p414
I1
ssS'workload'
p415
g11
(tRp416
S'n_contents'
p417
I100
sS'playback_rate'
p418
I10
sS'n_chunks'
p419
I200
sS'n_warmup'
p420
I0
sS'rate'
p421
F50
sS'n_measured'
p422
F15000
sS'alpha'
p423
F0.75
sS'n_services'
p424
I1
sS'seed'
p425
I0
sS'wndw_size'
p426
I10
sg412
S'STATIONARY'
p427
ssS'sched_policy'
p428
g11
(tRp429
g412
S'EDF'
p430
ssS'cache_policy'
p431
g11
(tRp432
g412
S'LRU'
p433
ssS'strategy'
p434
g11
(tRp435
g417
I100
sg418
I10
sS'advertisement_period'
p436
F5
sg412
S'NDN_MEASUREMENT'
p437
sg426
I10
sg419
I200
ssS'content_placement'
p438
g11
(tRp439
g412
S'UNIFORM'
p440
sg419
I200
ssS'cache_placement'
p441
g11
(tRp442
S'network_cache'
p443
F1
sS'network_cache_size'
p444
F20
sS'cache_budget'
p445
I400
sg412
g413
ssS'desc'
p446
S'strategy: NDN_MEASUREMENT cache size 20.0'
p447
sS'warmup_strategy'
p448
g11
(tRp449
g417
I100
sg418
I10
sg436
F5
sg412
g437
sg426
I10
sg419
I200
ssS'topology'
p450
g11
(tRp451
S'nrecv_per_edge'
p452
I10
sg412
S'TISCALI'
p453
ssg11
(tRp454
S'VIDEO_PLAYBACK'
p455
g11
(tRp456
S'ROUTER_HIT_RATIO'
p457
F0
sS'BUFFER_RATIO'
p458
F0.11766666666666667
sS'CACHE_HIT_RATIO'
p459
F0.84598933333333337
sS'OVERHEAD'
p460
F6.9516926666666663
sS'BUFFERING_PER_CONTENT'
p461
g11
(tRp462
I1
I255
sI2
I113
sI3
I123
sI4
I36
sI5
I119
sI6
I77
sI7
I66
sI8
I78
sI9
I18
sI10
I36
sI11
I32
sI12
I19
sI13
I37
sI14
I11
sI15
I15
sI16
I46
sI17
I14
sI18
I31
sI19
I38
sI20
I36
sI21
I4
sI22
I9
sI23
I4
sI24
I10
sI25
I17
sI26
I16
sI27
I11
sI28
I3
sI29
I6
sI30
I21
sI31
I13
sI32
I10
sI33
I8
sI34
I5
sI36
I8
sI38
I5
sI39
I11
sI40
I3
sI41
I9
sI42
I18
sI43
I19
sI44
I3
sI45
I1
sI46
I17
sI47
I4
sI48
I21
sI49
I2
sI50
I20
sI51
I13
sI52
I15
sI53
I5
sI54
I6
sI55
I9
sI56
I1
sI57
I10
sI58
I12
sI59
I21
sI60
I11
sI62
I6
sI63
I2
sI64
I45
sI65
I11
sI66
I1
sI67
I2
sI68
I2
sI70
I9
sI71
I15
sI72
I1
sI73
I4
sI74
I4
sI75
I7
sI79
I6
sI80
I14
sI82
I3
sI84
I2
sI86
I14
sI87
I6
sI88
I13
sI89
I1
sI90
I9
sI93
I2
sI94
I5
ssstp463
a(g11
(tRp464
S'computation_placement'
p465
g11
(tRp466
S'service_budget'
p467
I1
sS'name'
p468
S'EDGE'
p469
sS'computation_budget'
p470
I1
ssS'workload'
p471
g11
(tRp472
S'n_contents'
p473
I100
sS'playback_rate'
p474
I10
sS'n_chunks'
p475
I200
sS'n_warmup'
p476
I0
sS'rate'
p477
F50
sS'n_measured'
p478
F15000
sS'alpha'
p479
F0.75
sS'n_services'
p480
I1
sS'seed'
p481
I0
sS'wndw_size'
p482
I10
sg468
S'STATIONARY'
p483
ssS'sched_policy'
p484
g11
(tRp485
g468
S'EDF'
p486
ssS'cache_policy'
p487
g11
(tRp488
g468
S'LRU'
p489
ssS'strategy'
p490
g11
(tRp491
g473
I100
sg474
I10
sS'advertisement_period'
p492
F5
sg468
S'IPFS'
p493
sg482
I10
sg475
I200
ssS'content_placement'
p494
g11
(tRp495
g468
S'UNIFORM'
p496
sg475
I200
ssS'cache_placement'
p497
g11
(tRp498
S'network_cache'
p499
F1
sS'network_cache_size'
p500
F20
sS'cache_budget'
p501
I400
sg468
g469
ssS'desc'
p502
S'strategy: IPFS cache size 20.0'
p503
sS'warmup_strategy'
p504
g11
(tRp505
g473
I100
sg474
I10
sg492
F5
sg468
g493
sg482
I10
sg475
I200
ssS'topology'
p506
g11
(tRp507
S'nrecv_per_edge'
p508
I10
sg468
S'TISCALI'
p509
ssg11
(tRp510
S'VIDEO_PLAYBACK'
p511
g11
(tRp512
S'ROUTER_HIT_RATIO'
p513
F0
sS'BUFFER_RATIO'
p514
F0.0562
sS'CACHE_HIT_RATIO'
p515
F0.90535900000000002
sS'OVERHEAD'
p516
F7.4585416666666671
sS'BUFFERING_PER_CONTENT'
p517
g11
(tRp518
I1
I201
sI2
I15
sI3
I18
sI4
I71
sI5
I11
sI6
I6
sI7
I107
sI8
I44
sI9
I29
sI10
I23
sI11
I13
sI12
I10
sI13
I36
sI16
I1
sI19
I5
sI23
I13
sI24
I1
sI26
I24
sI28
I3
sI30
I1
sI31
I8
sI35
I17
sI36
I7
sI38
I9
sI40
I8
sI41
I2
sI43
I2
sI45
I2
sI46
I13
sI47
I3
sI48
I14
sI51
I7
sI57
I9
sI59
I2
sI61
I2
sI63
I4
sI64
I5
sI65
I6
sI69
I5
sI70
I14
sI72
I7
sI76
I8
sI77
I7
sI80
I5
sI81
I6
sI85
I5
sI87
I4
sI91
I1
sI93
I6
sI95
I9
sI97
I5
sI99
I9
ssstp519
a(g11
(tRp520
S'computation_placement'
p521
g11
(tRp522
S'service_budget'
p523
I1
sS'name'
p524
S'EDGE'
p525
sS'computation_budget'
p526
I1
ssS'workload'
p527
g11
(tRp528
S'n_contents'
p529
I100
sS'playback_rate'
p530
I10
sS'n_chunks'
p531
I200
sS'n_warmup'
p532
I0
sS'rate'
p533
F50
sS'n_measured'
p534
F15000
sS'alpha'
p535
F0.75
sS'n_services'
p536
I1
sS'seed'
p537
I0
sS'wndw_size'
p538
I10
sg524
S'STATIONARY'
p539
ssS'sched_policy'
p540
g11
(tRp541
g524
S'EDF'
p542
ssS'cache_policy'
p543
g11
(tRp544
g524
S'LRU'
p545
ssS'strategy'
p546
g11
(tRp547
g529
I100
sg530
I10
sS'advertisement_period'
p548
F5
sg524
S'IPFS'
p549
sg538
I10
sg531
I200
ssS'content_placement'
p550
g11
(tRp551
g524
S'UNIFORM'
p552
sg531
I200
ssS'cache_placement'
p553
g11
(tRp554
S'network_cache'
p555
F1
sS'network_cache_size'
p556
F1000
sS'cache_budget'
p557
I400
sg524
g525
ssS'desc'
p558
S'strategy: IPFS cache size 1000.0'
p559
sS'warmup_strategy'
p560
g11
(tRp561
g529
I100
sg530
I10
sg548
F5
sg524
g549
sg538
I10
sg531
I200
ssS'topology'
p562
g11
(tRp563
S'nrecv_per_edge'
p564
I10
sg524
S'TISCALI'
p565
ssg11
(tRp566
S'VIDEO_PLAYBACK'
p567
g11
(tRp568
S'ROUTER_HIT_RATIO'
p569
F0
sS'BUFFER_RATIO'
p570
F0.0074000000000000003
sS'CACHE_HIT_RATIO'
p571
F0.92191800000000002
sS'OVERHEAD'
p572
F6.1424473333333331
sS'BUFFERING_PER_CONTENT'
p573
g11
(tRp574
I1
I1
sI4
I1
sI6
I1
sI10
I1
sI13
I3
sI14
I1
sI21
I6
sI23
I4
sI31
I1
sI39
I9
sI44
I3
sI47
I1
sI49
I1
sI52
I5
sI54
I3
sI59
I12
sI63
I5
sI65
I21
sI75
I7
sI76
I1
sI80
I3
sI82
I1
sI91
I1
sI94
I1
sI95
I4
sI96
I14
ssstp575
a(g11
(tRp576
S'computation_placement'
p577
g11
(tRp578
S'service_budget'
p579
I1
sS'name'
p580
S'EDGE'
p581
sS'computation_budget'
p582
I1
ssS'workload'
p583
g11
(tRp584
S'n_contents'
p585
I100
sS'playback_rate'
p586
I10
sS'n_chunks'
p587
I200
sS'n_warmup'
p588
I0
sS'rate'
p589
F50
sS'n_measured'
p590
F15000
sS'alpha'
p591
F0.75
sS'n_services'
p592
I1
sS'seed'
p593
I0
sS'wndw_size'
p594
I10
sg580
S'STATIONARY'
p595
ssS'sched_policy'
p596
g11
(tRp597
g580
S'EDF'
p598
ssS'cache_policy'
p599
g11
(tRp600
g580
S'LRU'
p601
ssS'strategy'
p602
g11
(tRp603
g585
I100
sg586
I10
sS'advertisement_period'
p604
F5
sg580
S'IPFS'
p605
sg594
I10
sg587
I200
ssS'content_placement'
p606
g11
(tRp607
g580
S'UNIFORM'
p608
sg587
I200
ssS'cache_placement'
p609
g11
(tRp610
S'network_cache'
p611
F1
sS'network_cache_size'
p612
F100
sS'cache_budget'
p613
I400
sg580
g581
ssS'desc'
p614
S'strategy: IPFS cache size 100.0'
p615
sS'warmup_strategy'
p616
g11
(tRp617
g585
I100
sg586
I10
sg604
F5
sg580
g605
sg594
I10
sg587
I200
ssS'topology'
p618
g11
(tRp619
S'nrecv_per_edge'
p620
I10
sg580
S'TISCALI'
p621
ssg11
(tRp622
S'VIDEO_PLAYBACK'
p623
g11
(tRp624
S'ROUTER_HIT_RATIO'
p625
F0
sS'BUFFER_RATIO'
p626
F0.055133333333333333
sS'CACHE_HIT_RATIO'
p627
F0.90735966666666668
sS'OVERHEAD'
p628
F7.3264776666666664
sS'BUFFERING_PER_CONTENT'
p629
g11
(tRp630
I1
I23
sI2
I26
sI3
I69
sI4
I50
sI5
I64
sI7
I4
sI8
I40
sI9
I65
sI11
I4
sI13
I2
sI15
I1
sI17
I11
sI18
I3
sI19
I4
sI23
I16
sI26
I72
sI27
I1
sI29
I33
sI30
I9
sI34
I12
sI35
I5
sI36
I1
sI41
I19
sI44
I31
sI48
I1
sI49
I9
sI54
I4
sI55
I20
sI57
I8
sI62
I4
sI64
I2
sI65
I5
sI66
I14
sI67
I38
sI71
I4
sI75
I3
sI78
I30
sI79
I10
sI80
I1
sI82
I1
sI83
I22
sI85
I6
sI88
I4
sI90
I16
sI92
I13
sI93
I1
sI94
I2
sI95
I12
sI96
I20
sI98
I2
sI99
I10
ssstp631
a(g11
(tRp632
S'computation_placement'
p633
g11
(tRp634
S'service_budget'
p635
I1
sS'name'
p636
S'EDGE'
p637
sS'computation_budget'
p638
I1
ssS'workload'
p639
g11
(tRp640
S'n_contents'
p641
I100
sS'playback_rate'
p642
I10
sS'n_chunks'
p643
I200
sS'n_warmup'
p644
I0
sS'rate'
p645
F50
sS'n_measured'
p646
F15000
sS'alpha'
p647
F0.75
sS'n_services'
p648
I1
sS'seed'
p649
I0
sS'wndw_size'
p650
I10
sg636
S'STATIONARY'
p651
ssS'sched_policy'
p652
g11
(tRp653
g636
S'EDF'
p654
ssS'cache_policy'
p655
g11
(tRp656
g636
S'LRU'
p657
ssS'strategy'
p658
g11
(tRp659
g641
I100
sg642
I10
sS'advertisement_period'
p660
F5
sg636
S'IPFS'
p661
sg650
I10
sg643
I200
ssS'content_placement'
p662
g11
(tRp663
g636
S'UNIFORM'
p664
sg643
I200
ssS'cache_placement'
p665
g11
(tRp666
S'network_cache'
p667
F1
sS'network_cache_size'
p668
F200
sS'cache_budget'
p669
I400
sg636
g637
ssS'desc'
p670
S'strategy: IPFS cache size 200.0'
p671
sS'warmup_strategy'
p672
g11
(tRp673
g641
I100
sg642
I10
sg660
F5
sg636
g661
sg650
I10
sg643
I200
ssS'topology'
p674
g11
(tRp675
S'nrecv_per_edge'
p676
I10
sg636
S'TISCALI'
p677
ssg11
(tRp678
S'VIDEO_PLAYBACK'
p679
g11
(tRp680
S'ROUTER_HIT_RATIO'
p681
F0
sS'BUFFER_RATIO'
p682
F0.03373333333333333
sS'CACHE_HIT_RATIO'
p683
F0.90891200000000005
sS'OVERHEAD'
p684
F7.2022123333333337
sS'BUFFERING_PER_CONTENT'
p685
g11
(tRp686
I1
I27
sI2
I3
sI3
I45
sI4
I81
sI5
I30
sI6
I4
sI7
I4
sI8
I15
sI10
I14
sI12
I3
sI16
I16
sI17
I7
sI18
I1
sI20
I17
sI22
I1
sI24
I3
sI25
I1
sI32
I15
sI35
I29
sI36
I4
sI38
I7
sI44
I1
sI45
I5
sI47
I1
sI50
I8
sI52
I7
sI54
I1
sI56
I8
sI61
I9
sI66
I10
sI67
I2
sI68
I6
sI69
I4
sI71
I4
sI74
I6
sI76
I3
sI79
I17
sI82
I35
sI84
I1
sI85
I9
sI87
I3
sI88
I7
sI91
I4
sI92
I1
sI93
I3
sI94
I22
sI99
I2
ssstp687
atRp688
sb.